(lp0
(lp1
F0.0
aF0.015
aVwordPlacementMarker0 Welcome wordPlacementMarker1 to wordPlacementMarker2 the wordPlacementMarker3 Vernon wordPlacementMarker4 Smith wordPlacementMarker5 Experimental wordPlacementMarker6 Economics wordPlacementMarker7 Laboratory  
p2
aa(lp3
F3.68
aF5.147
aV wordPlacementMarker8 Please wordPlacementMarker9 carefully wordPlacementMarker10 watch wordPlacementMarker11 these wordPlacementMarker12 video wordPlacementMarker13 instructions wordPlacementMarker14 and wordPlacementMarker15 follow wordPlacementMarker16 along wordPlacementMarker17 on wordPlacementMarker18 the wordPlacementMarker19 paper wordPlacementMarker20 copy wordPlacementMarker21 at wordPlacementMarker22 your wordPlacementMarker23 desk  
p4
aa(lp5
F10.177
aF12.365
aV wordPlacementMarker24 Experiment wordPlacementMarker25 Overview 
p6
aa(lp7
F13.785
aF14.972
aV wordPlacementMarker26 You wordPlacementMarker27 are wordPlacementMarker28 about wordPlacementMarker29 to wordPlacementMarker30 participate wordPlacementMarker31 in wordPlacementMarker32 an wordPlacementMarker33 experiment wordPlacementMarker34 in wordPlacementMarker35 the wordPlacementMarker36 economics wordPlacementMarker37 of wordPlacementMarker38 decision making  
p8
aa(lp9
F19.468
aF20.657
aV wordPlacementMarker39 If wordPlacementMarker40 you wordPlacementMarker41 listen wordPlacementMarker42 carefully 
p10
aa(lp11
F22.039
aF22.218
aV  wordPlacementMarker43 you wordPlacementMarker44 could wordPlacementMarker45 earn wordPlacementMarker46 a wordPlacementMarker47 large wordPlacementMarker48 amount wordPlacementMarker49 of wordPlacementMarker50 money 
p12
aa(lp13
F24.069
aF24.235
aV  wordPlacementMarker51 that wordPlacementMarker52 will wordPlacementMarker53 be wordPlacementMarker54 paid wordPlacementMarker55 to wordPlacementMarker56 you wordPlacementMarker57 in wordPlacementMarker58 cash 
p14
aa(lp15
F26.036
aF26.234
aV  wordPlacementMarker59 in wordPlacementMarker60 private 
p16
aa(lp17
F26.919
aF27.105
aV  wordPlacementMarker61 at wordPlacementMarker62 the wordPlacementMarker63 end wordPlacementMarker64 of wordPlacementMarker65 the wordPlacementMarker66 experiment  
p18
aa(lp19
F28.711
aF29.898
aV wordPlacementMarker67 It wordPlacementMarker68 is wordPlacementMarker69 important wordPlacementMarker70 that wordPlacementMarker71 you wordPlacementMarker72 remain wordPlacementMarker73 silent wordPlacementMarker74 and wordPlacementMarker75 do wordPlacementMarker76 not wordPlacementMarker77 look wordPlacementMarker78 at wordPlacementMarker79 other wordPlacementMarker80 people's wordPlacementMarker81 work  
p20
aa(lp21
F33.863
aF35.051
aV wordPlacementMarker82 If wordPlacementMarker83 you wordPlacementMarker84 have wordPlacementMarker85 any wordPlacementMarker86 questions 
p22
aa(lp23
F36.682
aF36.877
aV  wordPlacementMarker87 or wordPlacementMarker88 need wordPlacementMarker89 any wordPlacementMarker90 assistance wordPlacementMarker91 of wordPlacementMarker92 any wordPlacementMarker93 kind 
p24
aa(lp25
F39.044
aF39.229
aV  wordPlacementMarker94 please wordPlacementMarker95 raise wordPlacementMarker96 your wordPlacementMarker97 hand wordPlacementMarker98 and wordPlacementMarker99 an wordPlacementMarker100 experimenter wordPlacementMarker101 will wordPlacementMarker102 help wordPlacementMarker103 you wordPlacementMarker104 out  
p26
aa(lp27
F42.302
aF43.49
aV wordPlacementMarker105 During wordPlacementMarker106 the wordPlacementMarker107 experiment 
p28
aa(lp29
F44.792
aF44.999
aV  wordPlacementMarker108 do wordPlacementMarker109 not wordPlacementMarker110 talk 
p30
aa(lp31
F45.787
aF45.974
aV  wordPlacementMarker111 laugh wordPlacementMarker112 or wordPlacementMarker113 exclaim wordPlacementMarker114 out wordPlacementMarker115 loud wordPlacementMarker116 and wordPlacementMarker117 be wordPlacementMarker118 sure wordPlacementMarker119 to wordPlacementMarker120 keep wordPlacementMarker121 your wordPlacementMarker122 eyes wordPlacementMarker123 on wordPlacementMarker124 your wordPlacementMarker125 screen wordPlacementMarker126 only  
p32
aa(lp33
F49.894
aF51.096
aV wordPlacementMarker127 In wordPlacementMarker128 addition 
p34
aa(lp35
F51.871
aF52.081
aV  wordPlacementMarker129 please wordPlacementMarker130 turn wordPlacementMarker131 off wordPlacementMarker132 your wordPlacementMarker133 cell wordPlacementMarker134 phones 
p36
aa(lp37
F53.799
aF53.981
aV  wordPlacementMarker135 etc  
p38
aa(lp39
F54.612
aF55.784
aV wordPlacementMarker136 and wordPlacementMarker137 put wordPlacementMarker138 them wordPlacementMarker139 away wordPlacementMarker140 during wordPlacementMarker141 the wordPlacementMarker142 experiment  
p40
aa(lp41
F57.84
aF59.036
aV wordPlacementMarker143 Anybody wordPlacementMarker144 that wordPlacementMarker145 violates wordPlacementMarker146 these wordPlacementMarker147 rules wordPlacementMarker148 will wordPlacementMarker149 be wordPlacementMarker150 asked wordPlacementMarker151 to wordPlacementMarker152 leave wordPlacementMarker153 and wordPlacementMarker154 will wordPlacementMarker155 not wordPlacementMarker156 be wordPlacementMarker157 paid  
p42
aa(lp43
F62.872
aF64.057
aV wordPlacementMarker158 We wordPlacementMarker159 expect 
p44
aa(lp45
F64.643
aF64.826
aV  wordPlacementMarker160 and wordPlacementMarker161 appreciate wordPlacementMarker162 your wordPlacementMarker163 cooperation  
p46
aa(lp47
F66.773
aF68.456
aV wordPlacementMarker164 Agenda 
p48
aa(lp49
F69.063
aF69.749
aV wordPlacementMarker165 one  
p50
aa(lp51
F70.204
aF71.902
aV wordPlacementMarker166 We wordPlacementMarker167 will wordPlacementMarker168 first wordPlacementMarker169 go wordPlacementMarker170 over wordPlacementMarker171 the wordPlacementMarker172 instructions  
p52
aa(lp53
F74.17
aF75.384
aV wordPlacementMarker173 two  
p54
aa(lp55
F75.793
aF77.482
aV wordPlacementMarker174 Then wordPlacementMarker175 we wordPlacementMarker176 will wordPlacementMarker177 have wordPlacementMarker178 a wordPlacementMarker179 practice wordPlacementMarker180 match wordPlacementMarker181 to wordPlacementMarker182 learn wordPlacementMarker183 the wordPlacementMarker184 interface  
p56
aa(lp57
F80.365
aF81.569
aV wordPlacementMarker185 three  
p58
aa(lp59
F82.11
aF83.798
aV wordPlacementMarker186 Next 
p60
aa(lp61
F84.402
aF84.594
aV  wordPlacementMarker187 there wordPlacementMarker188 will wordPlacementMarker189 be wordPlacementMarker190 a wordPlacementMarker191 quiz wordPlacementMarker192 with wordPlacementMarker193 ten wordPlacementMarker194 questions wordPlacementMarker195 to wordPlacementMarker196 make wordPlacementMarker197 sure wordPlacementMarker198 everyone wordPlacementMarker199 understands wordPlacementMarker200 the wordPlacementMarker201 instructions  
p62
aa(lp63
F89.441
aF91.63
aV wordPlacementMarker202 All wordPlacementMarker203 ten wordPlacementMarker204 questions wordPlacementMarker205 will wordPlacementMarker206 refer wordPlacementMarker207 to wordPlacementMarker208 these wordPlacementMarker209 instructions wordPlacementMarker210 so wordPlacementMarker211 you wordPlacementMarker212 should wordPlacementMarker213 follow wordPlacementMarker214 them wordPlacementMarker215 carefully  
p64
aa(lp65
F96.137
aF97.335
aV wordPlacementMarker216 If wordPlacementMarker217 you wordPlacementMarker218 answer wordPlacementMarker219 all wordPlacementMarker220 questions wordPlacementMarker221 correctly wordPlacementMarker222 you wordPlacementMarker223 will wordPlacementMarker224 earn wordPlacementMarker225 ten wordPlacementMarker226 dollars  
p66
aa(lp67
F100.659
aF102.846
aV wordPlacementMarker227 If wordPlacementMarker228 you wordPlacementMarker229 answer wordPlacementMarker230 at wordPlacementMarker231 least wordPlacementMarker232 one wordPlacementMarker233 question wordPlacementMarker234 incorrectly wordPlacementMarker235 you wordPlacementMarker236 will wordPlacementMarker237 earn wordPlacementMarker238 nothing 
p68
aa(lp69
F106.25
aF106.406
aV  wordPlacementMarker239 at wordPlacementMarker240 which wordPlacementMarker241 point wordPlacementMarker242 you wordPlacementMarker243 will wordPlacementMarker244 not wordPlacementMarker245 need wordPlacementMarker246 to wordPlacementMarker247 answer wordPlacementMarker248 any wordPlacementMarker249 more wordPlacementMarker250 questions  
p70
aa(lp71
F109.596
aF111.789
aV wordPlacementMarker251 You wordPlacementMarker252 will wordPlacementMarker253 have wordPlacementMarker254 ten wordPlacementMarker255 minutes wordPlacementMarker256 to wordPlacementMarker257 answer wordPlacementMarker258 the wordPlacementMarker259 ten wordPlacementMarker260 questions  
p72
aa(lp73
F114.494
aF115.705
aV wordPlacementMarker261 four  
p74
aa(lp75
F116.265
aF117.948
aV wordPlacementMarker262 After wordPlacementMarker263 the wordPlacementMarker264 quiz 
p76
aa(lp77
F118.953
aF119.141
aV  wordPlacementMarker265 you wordPlacementMarker266 will wordPlacementMarker267 have wordPlacementMarker268 ten wordPlacementMarker269 minutes wordPlacementMarker270 to wordPlacementMarker271 prepare wordPlacementMarker272 for wordPlacementMarker273 the wordPlacementMarker274 experiment  
p78
aa(lp79
F121.908
aF123.106
aV wordPlacementMarker275 In wordPlacementMarker276 the wordPlacementMarker277 experiment wordPlacementMarker278 you wordPlacementMarker279 will wordPlacementMarker280 be wordPlacementMarker281 working wordPlacementMarker282 with wordPlacementMarker283 a wordPlacementMarker284 fictitious wordPlacementMarker285 currency wordPlacementMarker286 called wordPlacementMarker287 Francs  
p80
aa(lp81
F127.278
aF128.471
aV wordPlacementMarker288 You wordPlacementMarker289 will wordPlacementMarker290 be wordPlacementMarker291 paid wordPlacementMarker292 in wordPlacementMarker293 US wordPlacementMarker294 Dollars wordPlacementMarker295 at wordPlacementMarker296 the wordPlacementMarker297 end wordPlacementMarker298 of wordPlacementMarker299 the wordPlacementMarker300 experiment  
p82
aa(lp83
F131.787
aF132.977
aV wordPlacementMarker301 The wordPlacementMarker302 exchange wordPlacementMarker303 rate wordPlacementMarker304 today wordPlacementMarker305 is 
p84
aa(lp85
F134.577
aF135.281
aV wordPlacementMarker306 one thousand two hundred and fifty wordPlacementMarker307 Francs wordPlacementMarker308 equals wordPlacementMarker309 one wordPlacementMarker310 u s dollars  
p86
aa(lp87
F138.942
aF144.625
aV wordPlacementMarker311 Experiment wordPlacementMarker312 Details 
p88
aa(lp89
F146.121
aF146.809
aV wordPlacementMarker313 This wordPlacementMarker314 experiment wordPlacementMarker315 consists wordPlacementMarker316 of wordPlacementMarker317 ten wordPlacementMarker318 matches  
p90
aa(lp91
F149.263
aF150.476
aV wordPlacementMarker319 Prior wordPlacementMarker320 to wordPlacementMarker321 start wordPlacementMarker322 of wordPlacementMarker323 the wordPlacementMarker324 experiment 
p92
aa(lp93
F152.384
aF152.571
aV  wordPlacementMarker325 all wordPlacementMarker326 participants wordPlacementMarker327 may wordPlacementMarker328 be wordPlacementMarker329 split wordPlacementMarker330 into wordPlacementMarker331 two wordPlacementMarker332 groups  
p94
aa(lp95
F155.313
aF156.504
aV wordPlacementMarker333 The wordPlacementMarker334 groups wordPlacementMarker335 will wordPlacementMarker336 stay wordPlacementMarker337 fixed wordPlacementMarker338 and wordPlacementMarker339 you wordPlacementMarker340 will wordPlacementMarker341 know wordPlacementMarker342 the wordPlacementMarker343 number wordPlacementMarker344 of wordPlacementMarker345 participants wordPlacementMarker346 in wordPlacementMarker347 your wordPlacementMarker348 group wordPlacementMarker349 throughout wordPlacementMarker350 the wordPlacementMarker351 experiment  
p96
aa(lp97
F161.547
aF162.746
aV wordPlacementMarker352 At wordPlacementMarker353 the wordPlacementMarker354 beginning wordPlacementMarker355 of wordPlacementMarker356 each wordPlacementMarker357 match 
p98
aa(lp99
F164.448
aF164.639
aV  wordPlacementMarker358 you wordPlacementMarker359 will wordPlacementMarker360 be wordPlacementMarker361 paired wordPlacementMarker362 randomly wordPlacementMarker363 with wordPlacementMarker364 one wordPlacementMarker365 other wordPlacementMarker366 participant wordPlacementMarker367 from wordPlacementMarker368 your wordPlacementMarker369 group  
p100
aa(lp101
F168.096
aF169.296
aV wordPlacementMarker370 You wordPlacementMarker371 will wordPlacementMarker372 remain wordPlacementMarker373 matched wordPlacementMarker374 with wordPlacementMarker375 this wordPlacementMarker376 same wordPlacementMarker377 participant wordPlacementMarker378 until wordPlacementMarker379 the wordPlacementMarker380 end wordPlacementMarker381 of wordPlacementMarker382 the wordPlacementMarker383 match 
p102
aa(lp103
F172.771
aF172.978
aV  wordPlacementMarker384 but wordPlacementMarker385 then wordPlacementMarker386 will wordPlacementMarker387 be wordPlacementMarker388 paired wordPlacementMarker389 with wordPlacementMarker390 another wordPlacementMarker391 randomly wordPlacementMarker392 selected wordPlacementMarker393 participant wordPlacementMarker394 from wordPlacementMarker395 your wordPlacementMarker396 group wordPlacementMarker397 in wordPlacementMarker398 the wordPlacementMarker399 following wordPlacementMarker400 match  
p104
aa(lp105
F178.154
aF179.339
aV wordPlacementMarker401 Each wordPlacementMarker402 match wordPlacementMarker403 will wordPlacementMarker404 have wordPlacementMarker405 the wordPlacementMarker406 same wordPlacementMarker407 structure 
p106
aa(lp107
F181.352
aF181.547
aV  wordPlacementMarker408 but wordPlacementMarker409 may wordPlacementMarker410 contain wordPlacementMarker411 different wordPlacementMarker412 numbers wordPlacementMarker413 of wordPlacementMarker414 periods  
p108
aa(lp109
F183.953
aF185.151
aV wordPlacementMarker415 You wordPlacementMarker416 will wordPlacementMarker417 remain wordPlacementMarker418 anonymous wordPlacementMarker419 throughout wordPlacementMarker420 the wordPlacementMarker421 experiment  
p110
aa(lp111
F187.538
aF188.735
aV wordPlacementMarker422 You wordPlacementMarker423 will wordPlacementMarker424 not wordPlacementMarker425 know wordPlacementMarker426 the wordPlacementMarker427 identity wordPlacementMarker428 of wordPlacementMarker429 the wordPlacementMarker430 participant wordPlacementMarker431 that wordPlacementMarker432 you wordPlacementMarker433 are wordPlacementMarker434 paired wordPlacementMarker435 with 
p112
aa(lp113
F192.26
aF192.45
aV  wordPlacementMarker436 and wordPlacementMarker437 they wordPlacementMarker438 will wordPlacementMarker439 not wordPlacementMarker440 know wordPlacementMarker441 your wordPlacementMarker442 identity  
p114
aa(lp115
F194.108
aF195.297
aV wordPlacementMarker443 The wordPlacementMarker444 choices wordPlacementMarker445 made wordPlacementMarker446 by wordPlacementMarker447 you 
p116
aa(lp117
F196.789
aF196.971
aV  wordPlacementMarker448 and wordPlacementMarker449 the wordPlacementMarker450 participant wordPlacementMarker451 you wordPlacementMarker452 are wordPlacementMarker453 paired wordPlacementMarker454 with 
p118
aa(lp119
F198.809
aF198.996
aV  wordPlacementMarker455 have wordPlacementMarker456 no wordPlacementMarker457 effect wordPlacementMarker458 on wordPlacementMarker459 the wordPlacementMarker460 payoffs wordPlacementMarker461 of wordPlacementMarker462 participants wordPlacementMarker463 in wordPlacementMarker464 other wordPlacementMarker465 pairs 
p120
aa(lp121
F202.527
aF202.706
aV  wordPlacementMarker466 and wordPlacementMarker467 vice wordPlacementMarker468 versa  
p122
aa(lp123
F203.647
aF204.817
aV wordPlacementMarker469 Therefore 
p124
aa(lp125
F205.548
aF205.722
aV  wordPlacementMarker470 your wordPlacementMarker471 payoff wordPlacementMarker472 in wordPlacementMarker473 a wordPlacementMarker474 given wordPlacementMarker475 match wordPlacementMarker476 is wordPlacementMarker477 based wordPlacementMarker478 solely wordPlacementMarker479 on wordPlacementMarker480 the wordPlacementMarker481 choices wordPlacementMarker482 made wordPlacementMarker483 by wordPlacementMarker484 you wordPlacementMarker485 and wordPlacementMarker486 the wordPlacementMarker487 participant wordPlacementMarker488 that wordPlacementMarker489 you wordPlacementMarker490 are wordPlacementMarker491 paired wordPlacementMarker492 with  
p126
aa(lp127
F211.384
aF212.573
aV wordPlacementMarker493 Next 
p128
aa(lp129
F213.178
aF213.362
aV  wordPlacementMarker494 Let's wordPlacementMarker495 Look wordPlacementMarker496 at wordPlacementMarker497 the wordPlacementMarker498 experimental wordPlacementMarker499 Interface 
p130
aa(lp131
F215.578
aF218.269
aV wordPlacementMarker500 Specific wordPlacementMarker501 Instructions wordPlacementMarker502 for wordPlacementMarker503 Each wordPlacementMarker504 Period 
p132
aa(lp133
F220.587
aF221.273
aV wordPlacementMarker505 Your wordPlacementMarker506 payoff wordPlacementMarker507 in wordPlacementMarker508 each wordPlacementMarker509 period wordPlacementMarker510 will wordPlacementMarker511 depend wordPlacementMarker512 on wordPlacementMarker513 your wordPlacementMarker514 choice wordPlacementMarker515 and wordPlacementMarker516 the wordPlacementMarker517 choice wordPlacementMarker518 of wordPlacementMarker519 the wordPlacementMarker520 participant wordPlacementMarker521 that wordPlacementMarker522 you wordPlacementMarker523 are wordPlacementMarker524 paired wordPlacementMarker525 with  
p134
aa(lp135
F226.496
aF227.673
aV wordPlacementMarker526 You wordPlacementMarker527 will wordPlacementMarker528 choose wordPlacementMarker529 one wordPlacementMarker530 of wordPlacementMarker531 two wordPlacementMarker532 options 
p136
aa(lp137
F229.465
aF229.654
aV  wordPlacementMarker533 either wordPlacementMarker534 W wordPlacementMarker535 or wordPlacementMarker536 Y  
p138
aa(lp139
F231.091
aF232.076
aV wordPlacementMarker537 You wordPlacementMarker538 will wordPlacementMarker539 be wordPlacementMarker540 able wordPlacementMarker541 to wordPlacementMarker542 see wordPlacementMarker543 the wordPlacementMarker544 payoffs wordPlacementMarker545 for wordPlacementMarker546 each wordPlacementMarker547 combination wordPlacementMarker548 of wordPlacementMarker549 choices wordPlacementMarker550 for wordPlacementMarker551 you wordPlacementMarker552 and wordPlacementMarker553 the wordPlacementMarker554 participant wordPlacementMarker555 that wordPlacementMarker556 you wordPlacementMarker557 are wordPlacementMarker558 paired wordPlacementMarker559 with  
p140
aa(lp141
F237.808
aF239.012
aV wordPlacementMarker560 These wordPlacementMarker561 payoffs wordPlacementMarker562 will wordPlacementMarker563 remain wordPlacementMarker564 the wordPlacementMarker565 same wordPlacementMarker566 throughout wordPlacementMarker567 the wordPlacementMarker568 entire wordPlacementMarker569 experiment 
p142
aa(lp143
F242.472
aF243.173
aV wordPlacementMarker570  all wordPlacementMarker571 matches   
p144
aa(lp145
F244.031
aF245.726
aV wordPlacementMarker572 The wordPlacementMarker573 payoffs wordPlacementMarker574 will wordPlacementMarker575 be wordPlacementMarker576 displayed wordPlacementMarker577 in wordPlacementMarker578 a wordPlacementMarker579 table wordPlacementMarker580 like wordPlacementMarker581 this 
p146
aa(lp147
F248.19
aF248.88
aV wordPlacementMarker582 In wordPlacementMarker583 this wordPlacementMarker584 example wordPlacementMarker585 above 
p148
aa(lp149
F250.189
aF250.374
aV  wordPlacementMarker586 the wordPlacementMarker587 rows wordPlacementMarker588 are wordPlacementMarker589 the wordPlacementMarker590 following 
p150
aa(lp151
F251.714
aF252.404
aV wordPlacementMarker591 Row wordPlacementMarker592  number one wordPlacementMarker593 
p152
aa(lp153
F253.469
aF253.659
aV Your wordPlacementMarker594 choice 
p154
aa(lp155
F254.422
aF255.619
aV wordPlacementMarker595  either wordPlacementMarker596 W wordPlacementMarker597 or wordPlacementMarker598 Y wordPlacementMarker599 in wordPlacementMarker600 this wordPlacementMarker601 example  
p156
aa(lp157
F257.694
aF258.877
aV wordPlacementMarker602 Row wordPlacementMarker603  number two wordPlacementMarker604 
p158
aa(lp159
F259.961
aF260.146
aV Other's wordPlacementMarker605 choice 
p160
aa(lp161
F261.133
aF262.32
aV wordPlacementMarker606  either wordPlacementMarker607 W wordPlacementMarker608 or wordPlacementMarker609 Y wordPlacementMarker610 in wordPlacementMarker611 this wordPlacementMarker612 example  
p162
aa(lp163
F264.394
aF266.578
aV wordPlacementMarker613 Row wordPlacementMarker614  number three wordPlacementMarker615 
p164
aa(lp165
F267.629
aF267.822
aV Your wordPlacementMarker616 payoff  
p166
aa(lp167
F268.591
aF269.789
aV wordPlacementMarker617 Row wordPlacementMarker618  number four wordPlacementMarker619 
p168
aa(lp169
F270.867
aF271.056
aV Other's wordPlacementMarker620 payoff  
p170
aa(lp171
F272.047
aF273.242
aV wordPlacementMarker621 Row wordPlacementMarker622  number five wordPlacementMarker623 
p172
aa(lp173
F274.408
aF274.608
aV Total wordPlacementMarker624 number wordPlacementMarker625 of wordPlacementMarker626 times wordPlacementMarker627 that wordPlacementMarker628 that wordPlacementMarker629 combination wordPlacementMarker630 has wordPlacementMarker631 been wordPlacementMarker632 played wordPlacementMarker633 this wordPlacementMarker634 match  
p174
aa(lp175
F278.501
aF279.689
aV wordPlacementMarker635 Examples 
p176
aa(lp177
F280.512
aF281.193
aV wordPlacementMarker636 In wordPlacementMarker637 the wordPlacementMarker638 table wordPlacementMarker639 above 
p178
aa(lp179
F282.412
aF282.584
aV  wordPlacementMarker640 if wordPlacementMarker641 you wordPlacementMarker642 choose wordPlacementMarker643 W wordPlacementMarker644 and wordPlacementMarker645 the wordPlacementMarker646 participant wordPlacementMarker647 that wordPlacementMarker648 you wordPlacementMarker649 are wordPlacementMarker650 paired wordPlacementMarker651 with wordPlacementMarker652 chooses wordPlacementMarker653 Y 
p180
aa(lp181
F286.774
aF286.982
aV  wordPlacementMarker654 then wordPlacementMarker655 you wordPlacementMarker656 receive wordPlacementMarker657 a wordPlacementMarker658 payoff wordPlacementMarker659 of wordPlacementMarker660 three 
p182
aa(lp183
F288.923
aF289.115
aV  wordPlacementMarker661 and wordPlacementMarker662 the wordPlacementMarker663 participant wordPlacementMarker664 that wordPlacementMarker665 you wordPlacementMarker666 are wordPlacementMarker667 paired wordPlacementMarker668 with wordPlacementMarker669 receives wordPlacementMarker670 a wordPlacementMarker671 payoff wordPlacementMarker672 of wordPlacementMarker673 four  
p184
aa(lp185
F292.661
aF293.847
aV wordPlacementMarker674 This wordPlacementMarker675 combination wordPlacementMarker676 has wordPlacementMarker677 occurred wordPlacementMarker678 nineteen wordPlacementMarker679 times wordPlacementMarker680 so wordPlacementMarker681 far wordPlacementMarker682 this wordPlacementMarker683 match  
p186
aa(lp187
F297.504
aF298.691
aV wordPlacementMarker684 If wordPlacementMarker685 you wordPlacementMarker686 choose wordPlacementMarker687 W wordPlacementMarker688 and wordPlacementMarker689 the wordPlacementMarker690 participant wordPlacementMarker691 that wordPlacementMarker692 you wordPlacementMarker693 are wordPlacementMarker694 paired wordPlacementMarker695 with wordPlacementMarker696 chooses wordPlacementMarker697 W 
p188
aa(lp189
F302.987
aF303.188
aV  wordPlacementMarker698 then wordPlacementMarker699 you wordPlacementMarker700 receive wordPlacementMarker701 a wordPlacementMarker702 payoff wordPlacementMarker703 of wordPlacementMarker704 seven 
p190
aa(lp191
F305.253
aF305.436
aV  wordPlacementMarker705 and wordPlacementMarker706 the wordPlacementMarker707 participant wordPlacementMarker708 that wordPlacementMarker709 you wordPlacementMarker710 are wordPlacementMarker711 paired wordPlacementMarker712 with wordPlacementMarker713 receives wordPlacementMarker714 a wordPlacementMarker715 payoff wordPlacementMarker716 of wordPlacementMarker717 eight  
p192
aa(lp193
F308.82
aF310.006
aV wordPlacementMarker718 This wordPlacementMarker719 combination wordPlacementMarker720 has wordPlacementMarker721 occurred wordPlacementMarker722 six wordPlacementMarker723 times wordPlacementMarker724 so wordPlacementMarker725 far wordPlacementMarker726 this wordPlacementMarker727 match  
p194
aa(lp195
F313.399
aF314.589
aV wordPlacementMarker728 If wordPlacementMarker729 you wordPlacementMarker730 choose wordPlacementMarker731 Y wordPlacementMarker732 and wordPlacementMarker733 the wordPlacementMarker734 participant wordPlacementMarker735 you wordPlacementMarker736 are wordPlacementMarker737 paired wordPlacementMarker738 with wordPlacementMarker739 chooses wordPlacementMarker740 Y 
p196
aa(lp197
F318.357
aF318.56
aV  wordPlacementMarker741 then wordPlacementMarker742 you wordPlacementMarker743 receive wordPlacementMarker744 a wordPlacementMarker745 payoff wordPlacementMarker746 of wordPlacementMarker747 one 
p198
aa(lp199
F320.558
aF320.746
aV  wordPlacementMarker748 and wordPlacementMarker749 the wordPlacementMarker750 participant wordPlacementMarker751 that wordPlacementMarker752 you wordPlacementMarker753 are wordPlacementMarker754 paired wordPlacementMarker755 with wordPlacementMarker756 receives wordPlacementMarker757 a wordPlacementMarker758 payoff wordPlacementMarker759 of wordPlacementMarker760 two  
p200
aa(lp201
F324.242
aF325.425
aV wordPlacementMarker761 This wordPlacementMarker762 combination wordPlacementMarker763 has wordPlacementMarker764 occurred wordPlacementMarker765 six wordPlacementMarker766 times wordPlacementMarker767 so wordPlacementMarker768 far wordPlacementMarker769 this wordPlacementMarker770 match  
p202
aa(lp203
F328.818
aF330.522
aV wordPlacementMarker771 History 
p204
aa(lp205
F331.178
aF331.88
aV wordPlacementMarker772 As wordPlacementMarker773 the wordPlacementMarker774 match wordPlacementMarker775 progresses 
p206
aa(lp207
F333.28
aF333.475
aV  wordPlacementMarker776 you wordPlacementMarker777 will wordPlacementMarker778 see wordPlacementMarker779 the wordPlacementMarker780 history wordPlacementMarker781 of wordPlacementMarker782 play wordPlacementMarker783 across wordPlacementMarker784 the wordPlacementMarker785 top wordPlacementMarker786 of wordPlacementMarker787 the wordPlacementMarker788 screen 
p208
aa(lp209
F336.632
aF336.834
aV  wordPlacementMarker789 displayed wordPlacementMarker790 like wordPlacementMarker791 this 
p210
aa(lp211
F337.961
aF338.654
aV wordPlacementMarker792 This wordPlacementMarker793 history wordPlacementMarker794 displays wordPlacementMarker795 the wordPlacementMarker796 period 
p212
aa(lp213
F340.546
aF341.232
aV wordPlacementMarker797  labeled wordPlacementMarker798 Period  
p214
aa(lp215
F342.15
aF342.832
aV wordPlacementMarker799 your wordPlacementMarker800 choice wordPlacementMarker801 in wordPlacementMarker802 that wordPlacementMarker803 period 
p216
aa(lp217
F344.272
aF344.958
aV wordPlacementMarker804  labeled wordPlacementMarker805 My wordPlacementMarker806 Choice  
p218
aa(lp219
F346.182
aF346.881
aV wordPlacementMarker807 the wordPlacementMarker808 choice wordPlacementMarker809 of wordPlacementMarker810 the wordPlacementMarker811 participant wordPlacementMarker812 you wordPlacementMarker813 are wordPlacementMarker814 paired wordPlacementMarker815 with wordPlacementMarker816 in wordPlacementMarker817 that wordPlacementMarker818 period 
p220
aa(lp221
F349.74
aF350.424
aV wordPlacementMarker819  labeled wordPlacementMarker820 Other's wordPlacementMarker821 Choice  
p222
aa(lp223
F351.843
aF352.531
aV wordPlacementMarker822 and wordPlacementMarker823 the wordPlacementMarker824 payoff wordPlacementMarker825 for wordPlacementMarker826 that wordPlacementMarker827 period 
p224
aa(lp225
F354.115
aF354.801
aV wordPlacementMarker828  labeled wordPlacementMarker829 My wordPlacementMarker830 Payoff   
p226
aa(lp227
F356.04
aF357.758
aV wordPlacementMarker831 For wordPlacementMarker832 example 
p228
aa(lp229
F358.735
aF358.912
aV  wordPlacementMarker833 in wordPlacementMarker834 the wordPlacementMarker835 above wordPlacementMarker836 history 
p230
aa(lp231
F360.164
aF360.362
aV  wordPlacementMarker837 in wordPlacementMarker838 period wordPlacementMarker839 thirty nine 
p232
aa(lp233
F361.959
aF362.145
aV  wordPlacementMarker840 you wordPlacementMarker841 played wordPlacementMarker842 W 
p234
aa(lp235
F363.328
aF363.515
aV  wordPlacementMarker843 the wordPlacementMarker844 participant wordPlacementMarker845 you wordPlacementMarker846 are wordPlacementMarker847 paired wordPlacementMarker848 with wordPlacementMarker849 played wordPlacementMarker850 Y 
p236
aa(lp237
F365.949
aF366.137
aV  wordPlacementMarker851 and wordPlacementMarker852 you wordPlacementMarker853 received wordPlacementMarker854 a wordPlacementMarker855 payoff wordPlacementMarker856 of wordPlacementMarker857 three  
p238
aa(lp239
F368.035
aF369.725
aV wordPlacementMarker858 Rules 
p240
aa(lp241
F370.251
aF370.94
aV wordPlacementMarker859 Rather wordPlacementMarker860 than wordPlacementMarker861 directly wordPlacementMarker862 making wordPlacementMarker863 choices wordPlacementMarker864 of wordPlacementMarker865 W wordPlacementMarker866 or wordPlacementMarker867 Y 
p242
aa(lp243
F374.2
aF374.386
aV  wordPlacementMarker868 you wordPlacementMarker869 will wordPlacementMarker870 develop wordPlacementMarker871 a wordPlacementMarker872 set wordPlacementMarker873 of wordPlacementMarker874 rules wordPlacementMarker875 which wordPlacementMarker876 will wordPlacementMarker877 automatically wordPlacementMarker878 make wordPlacementMarker879 choices wordPlacementMarker880 for wordPlacementMarker881 you  
p244
aa(lp245
F378.316
aF379.506
aV wordPlacementMarker882 The wordPlacementMarker883 set wordPlacementMarker884 of wordPlacementMarker885 rules wordPlacementMarker886 will wordPlacementMarker887 appear wordPlacementMarker888 in wordPlacementMarker889 the wordPlacementMarker890 middle wordPlacementMarker891 of wordPlacementMarker892 the wordPlacementMarker893 screen  
p246
aa(lp247
F382.138
aF383.317
aV wordPlacementMarker894 You wordPlacementMarker895 will wordPlacementMarker896 be wordPlacementMarker897 able wordPlacementMarker898 to wordPlacementMarker899 construct wordPlacementMarker900 rules wordPlacementMarker901 using wordPlacementMarker902 the wordPlacementMarker903 rule wordPlacementMarker904 constructor wordPlacementMarker905 at wordPlacementMarker906 the wordPlacementMarker907 bottom wordPlacementMarker908 of wordPlacementMarker909 the wordPlacementMarker910 screen  
p248
aa(lp249
F387.764
aF388.947
aV wordPlacementMarker911 A wordPlacementMarker912 rule wordPlacementMarker913 consists wordPlacementMarker914 of wordPlacementMarker915 two wordPlacementMarker916 parts 
p250
aa(lp251
F390.634
aF391.323
aV wordPlacementMarker917 Input wordPlacementMarker918 Sequence wordPlacementMarker919 
p252
aa(lp253
F392.433
aF392.617
aV A wordPlacementMarker920 sequence wordPlacementMarker921 of wordPlacementMarker922 choices wordPlacementMarker923 made wordPlacementMarker924 by wordPlacementMarker925 you wordPlacementMarker926 and wordPlacementMarker927 the wordPlacementMarker928 participant wordPlacementMarker929 you wordPlacementMarker930 are wordPlacementMarker931 paired wordPlacementMarker932 with  
p254
aa(lp255
F396.475
aF397.663
aV wordPlacementMarker933 Output wordPlacementMarker934 
p256
aa(lp257
F398.288
aF398.476
aV A wordPlacementMarker935 choice wordPlacementMarker936 to wordPlacementMarker937 be wordPlacementMarker938 made wordPlacementMarker939 by wordPlacementMarker940 you wordPlacementMarker941 after wordPlacementMarker942 the wordPlacementMarker943 input wordPlacementMarker944 sequence wordPlacementMarker945 occurs  
p258
aa(lp259
F401.915
aF403.109
aV wordPlacementMarker946 Some wordPlacementMarker947 example wordPlacementMarker948 rules wordPlacementMarker949 are wordPlacementMarker950 displayed wordPlacementMarker951 below 
p260
aa(lp261
F405.265
aF405.965
aV wordPlacementMarker952 For wordPlacementMarker953 example 
p262
aa(lp263
F406.956
aF407.121
aV  wordPlacementMarker954 Rule wordPlacementMarker955  number two wordPlacementMarker956 has wordPlacementMarker957 an wordPlacementMarker958 input wordPlacementMarker959 sequence wordPlacementMarker960 of 
p264
aa(lp265
F409.614
aF410.295
aV wordPlacementMarker961  Y 
p266
aa(lp267
F410.801
aF410.961
aV Y  
p268
aa(lp269
F411.442
aF412.853
aV wordPlacementMarker962  W 
p270
aa(lp271
F413.501
aF413.719
aV W  
p272
aa(lp273
F414.265
aF415.456
aV wordPlacementMarker963  Y 
p274
aa(lp275
F415.949
aF416.14
aV W  
p276
aa(lp277
F416.687
aF417.365
aV wordPlacementMarker964 and wordPlacementMarker965 an wordPlacementMarker966 output wordPlacementMarker967 of wordPlacementMarker968 W  
p278
aa(lp279
F418.86
aF419.847
aV wordPlacementMarker969 This wordPlacementMarker970 means wordPlacementMarker971 that wordPlacementMarker972 if wordPlacementMarker973 you wordPlacementMarker974 have wordPlacementMarker975 played wordPlacementMarker976 Y 
p280
aa(lp281
F421.771
aF421.972
aV  wordPlacementMarker977 W 
p282
aa(lp283
F422.575
aF422.775
aV  wordPlacementMarker978 and wordPlacementMarker979 then wordPlacementMarker980 Y wordPlacementMarker981 in wordPlacementMarker982 the wordPlacementMarker983 last wordPlacementMarker984 three wordPlacementMarker985 periods 
p284
aa(lp285
F424.825
aF425.015
aV  wordPlacementMarker986 and wordPlacementMarker987 the wordPlacementMarker988 participant wordPlacementMarker989 that wordPlacementMarker990 you wordPlacementMarker991 are wordPlacementMarker992 paired wordPlacementMarker993 with wordPlacementMarker994 has wordPlacementMarker995 played wordPlacementMarker996 Y 
p286
aa(lp287
F428.003
aF428.21
aV  wordPlacementMarker997 W 
p288
aa(lp289
F428.758
aF428.949
aV  wordPlacementMarker998 and wordPlacementMarker999 then wordPlacementMarker1000 W 
p290
aa(lp291
F429.992
aF430.172
aV  wordPlacementMarker1001 this wordPlacementMarker1002 rule wordPlacementMarker1003 will wordPlacementMarker1004 lead wordPlacementMarker1005 you wordPlacementMarker1006 to wordPlacementMarker1007 play wordPlacementMarker1008 W wordPlacementMarker1009 in wordPlacementMarker1010 the wordPlacementMarker1011 next wordPlacementMarker1012 period  
p292
aa(lp293
F433.336
aF434.523
aV wordPlacementMarker1013 As wordPlacementMarker1014 play wordPlacementMarker1015 progresses wordPlacementMarker1016 you wordPlacementMarker1017 will wordPlacementMarker1018 develop wordPlacementMarker1019 a wordPlacementMarker1020 set wordPlacementMarker1021 of wordPlacementMarker1022 rules wordPlacementMarker1023 that wordPlacementMarker1024 will wordPlacementMarker1025 be wordPlacementMarker1026 used wordPlacementMarker1027 to wordPlacementMarker1028 make wordPlacementMarker1029 your wordPlacementMarker1030 choices  
p294
aa(lp295
F439.156
aF440.375
aV wordPlacementMarker1031 Play wordPlacementMarker1032 will wordPlacementMarker1033 proceed wordPlacementMarker1034 as wordPlacementMarker1035 follows 
p296
aa(lp297
F442.189
aF442.876
aV wordPlacementMarker1036 Each wordPlacementMarker1037 period 
p298
aa(lp299
F443.605
aF443.77
aV  wordPlacementMarker1038 your wordPlacementMarker1039 set wordPlacementMarker1040 of wordPlacementMarker1041 rules wordPlacementMarker1042 will wordPlacementMarker1043 select wordPlacementMarker1044 the wordPlacementMarker1045 choice wordPlacementMarker1046 to wordPlacementMarker1047 be wordPlacementMarker1048 made wordPlacementMarker1049 next wordPlacementMarker1050 period  
p300
aa(lp301
F446.921
aF448.107
aV wordPlacementMarker1051 The wordPlacementMarker1052 rule wordPlacementMarker1053 that wordPlacementMarker1054 will wordPlacementMarker1055 be wordPlacementMarker1056 used wordPlacementMarker1057 to wordPlacementMarker1058 make wordPlacementMarker1059 the wordPlacementMarker1060 choice wordPlacementMarker1061 will wordPlacementMarker1062 be wordPlacementMarker1063 highlighted  
p302
aa(lp303
F450.917
aF452.105
aV wordPlacementMarker1064 The wordPlacementMarker1065 corresponding wordPlacementMarker1066 sequence wordPlacementMarker1067 in wordPlacementMarker1068 the wordPlacementMarker1069 history wordPlacementMarker1070 will wordPlacementMarker1071 be wordPlacementMarker1072 highlighted  
p304
aa(lp305
F455.223
aF456.422
aV wordPlacementMarker1073 A wordPlacementMarker1074 preview wordPlacementMarker1075 of wordPlacementMarker1076 the wordPlacementMarker1077 choice wordPlacementMarker1078 to wordPlacementMarker1079 be wordPlacementMarker1080 made wordPlacementMarker1081 next wordPlacementMarker1082 period wordPlacementMarker1083 will wordPlacementMarker1084 be wordPlacementMarker1085 shown wordPlacementMarker1086 as wordPlacementMarker1087 a wordPlacementMarker1088 lightly wordPlacementMarker1089 colored wordPlacementMarker1090 cell wordPlacementMarker1091 on wordPlacementMarker1092 the wordPlacementMarker1093 history wordPlacementMarker1094 of wordPlacementMarker1095 play  
p306
aa(lp307
F462.291
aF463.456
aV wordPlacementMarker1096 In wordPlacementMarker1097 order wordPlacementMarker1098 to wordPlacementMarker1099 move wordPlacementMarker1100 to wordPlacementMarker1101 the wordPlacementMarker1102 next wordPlacementMarker1103 period 
p308
aa(lp309
F465.335
aF465.523
aV  wordPlacementMarker1104 you wordPlacementMarker1105 have wordPlacementMarker1106 to wordPlacementMarker1107 confirm wordPlacementMarker1108 the wordPlacementMarker1109 choice wordPlacementMarker1110 by wordPlacementMarker1111 clicking wordPlacementMarker1112 on wordPlacementMarker1113 the wordPlacementMarker1114 corresponding wordPlacementMarker1115 history wordPlacementMarker1116 cell  
p310
aa(lp311
F469.558
aF470.764
aV wordPlacementMarker1117 Once wordPlacementMarker1118 you wordPlacementMarker1119 have wordPlacementMarker1120 confirmed wordPlacementMarker1121 your wordPlacementMarker1122 choice 
p312
aa(lp313
F472.682
aF472.867
aV  wordPlacementMarker1123 the wordPlacementMarker1124 light wordPlacementMarker1125 color wordPlacementMarker1126 will wordPlacementMarker1127 turn wordPlacementMarker1128 to wordPlacementMarker1129 a wordPlacementMarker1130 regular wordPlacementMarker1131 color 
p314
aa(lp315
F475.389
aF475.568
aV  wordPlacementMarker1132 and wordPlacementMarker1133 you wordPlacementMarker1134 may wordPlacementMarker1135 need wordPlacementMarker1136 to wordPlacementMarker1137 wait wordPlacementMarker1138 for wordPlacementMarker1139 the wordPlacementMarker1140 participant wordPlacementMarker1141 that wordPlacementMarker1142 you wordPlacementMarker1143 are wordPlacementMarker1144 paired wordPlacementMarker1145 with wordPlacementMarker1146 to wordPlacementMarker1147 make wordPlacementMarker1148 their wordPlacementMarker1149 choice  
p316
aa(lp317
F479.603
aF485.797
aV wordPlacementMarker1150 There wordPlacementMarker1151 are wordPlacementMarker1152 several wordPlacementMarker1153 ways wordPlacementMarker1154 that wordPlacementMarker1155 you wordPlacementMarker1156 can wordPlacementMarker1157 modify wordPlacementMarker1158 your wordPlacementMarker1159 rules wordPlacementMarker1160 during wordPlacementMarker1161 the wordPlacementMarker1162 experiment  
p318
aa(lp319
F489.701
aF490.886
aV wordPlacementMarker1163 one  
p320
aa(lp321
F491.342
aF493.055
aV wordPlacementMarker1164 First 
p322
aa(lp323
F493.591
aF493.777
aV  wordPlacementMarker1165 you wordPlacementMarker1166 can wordPlacementMarker1167 use wordPlacementMarker1168 the wordPlacementMarker1169 rule wordPlacementMarker1170 constructor wordPlacementMarker1171 in wordPlacementMarker1172 the wordPlacementMarker1173 bottom wordPlacementMarker1174 center wordPlacementMarker1175 of wordPlacementMarker1176 the wordPlacementMarker1177 screen  
p324
aa(lp325
F497.279
aF498.49
aV wordPlacementMarker1178 Press wordPlacementMarker1179 the wordPlacementMarker1180 plus wordPlacementMarker1181 button wordPlacementMarker1182 to wordPlacementMarker1183 add wordPlacementMarker1184 more wordPlacementMarker1185 columns 
p326
aa(lp327
F500.827
aF501.017
aV  wordPlacementMarker1186 or wordPlacementMarker1187 one wordPlacementMarker1188 of wordPlacementMarker1189 the wordPlacementMarker1190 minus wordPlacementMarker1191 buttons wordPlacementMarker1192 to wordPlacementMarker1193 subtract wordPlacementMarker1194 columns  
p328
aa(lp329
F503.837
aF505.041
aV wordPlacementMarker1195 Click wordPlacementMarker1196 on wordPlacementMarker1197 the wordPlacementMarker1198 question wordPlacementMarker1199 marks wordPlacementMarker1200 to wordPlacementMarker1201 fill wordPlacementMarker1202 in wordPlacementMarker1203 the wordPlacementMarker1204 boxes  
p330
aa(lp331
F507.669
aF508.884
aV wordPlacementMarker1205 When wordPlacementMarker1206 you wordPlacementMarker1207 click wordPlacementMarker1208 on wordPlacementMarker1209 a wordPlacementMarker1210 question wordPlacementMarker1211 mark 
p332
aa(lp333
F510.749
aF510.939
aV  wordPlacementMarker1212 either wordPlacementMarker1213 a wordPlacementMarker1214 W wordPlacementMarker1215 or wordPlacementMarker1216 a wordPlacementMarker1217 Y wordPlacementMarker1218 will wordPlacementMarker1219 appear  
p334
aa(lp335
F513.046
aF514.228
aV wordPlacementMarker1220 If wordPlacementMarker1221 you wordPlacementMarker1222 click wordPlacementMarker1223 on wordPlacementMarker1224 a wordPlacementMarker1225 W 
p336
aa(lp337
F515.72
aF515.911
aV  wordPlacementMarker1226 it wordPlacementMarker1227 will wordPlacementMarker1228 switch wordPlacementMarker1229 to wordPlacementMarker1230 a wordPlacementMarker1231 Y 
p338
aa(lp339
F517.332
aF517.52
aV  wordPlacementMarker1232 and wordPlacementMarker1233 if wordPlacementMarker1234 you wordPlacementMarker1235 click wordPlacementMarker1236 on wordPlacementMarker1237 a wordPlacementMarker1238 Y 
p340
aa(lp341
F518.991
aF519.181
aV  wordPlacementMarker1239 it wordPlacementMarker1240 will wordPlacementMarker1241 switch wordPlacementMarker1242 to wordPlacementMarker1243 a wordPlacementMarker1244 W  
p342
aa(lp343
F520.811
aF521.795
aV wordPlacementMarker1245 Once wordPlacementMarker1246 you wordPlacementMarker1247 have wordPlacementMarker1248 completely wordPlacementMarker1249 filled wordPlacementMarker1250 in wordPlacementMarker1251 the wordPlacementMarker1252 rule 
p344
aa(lp345
F523.847
aF524.531
aV wordPlacementMarker1253  leaving wordPlacementMarker1254 no wordPlacementMarker1255 question wordPlacementMarker1256 marks  
p346
aa(lp347
F526.169
aF526.865
aV wordPlacementMarker1257 the wordPlacementMarker1258 add wordPlacementMarker1259 rule wordPlacementMarker1260 button wordPlacementMarker1261 will wordPlacementMarker1262 appear 
p348
aa(lp349
F528.815
aF529.002
aV  wordPlacementMarker1263 and wordPlacementMarker1264 the wordPlacementMarker1265 rule wordPlacementMarker1266 can wordPlacementMarker1267 be wordPlacementMarker1268 added wordPlacementMarker1269 to wordPlacementMarker1270 your wordPlacementMarker1271 set  
p350
aa(lp351
F530.749
aF531.964
aV wordPlacementMarker1272 two  
p352
aa(lp353
F532.376
aF534.066
aV wordPlacementMarker1273 Second 
p354
aa(lp355
F534.666
aF534.847
aV  wordPlacementMarker1274 if wordPlacementMarker1275 you wordPlacementMarker1276 look wordPlacementMarker1277 at wordPlacementMarker1278 a wordPlacementMarker1279 rule wordPlacementMarker1280 in wordPlacementMarker1281 the wordPlacementMarker1282 set 
p356
aa(lp357
F536.508
aF536.696
aV  wordPlacementMarker1283 you wordPlacementMarker1284 will wordPlacementMarker1285 notice wordPlacementMarker1286 a wordPlacementMarker1287 green wordPlacementMarker1288 copy wordPlacementMarker1289 button 
p358
aa(lp359
F538.56
aF538.73
aV  wordPlacementMarker1290 and wordPlacementMarker1291 a wordPlacementMarker1292 red wordPlacementMarker1293 delete wordPlacementMarker1294 button  
p360
aa(lp361
F539.92
aF541.115
aV wordPlacementMarker1295 If wordPlacementMarker1296 you wordPlacementMarker1297 press wordPlacementMarker1298 the wordPlacementMarker1299 green wordPlacementMarker1300 copy wordPlacementMarker1301 button 
p362
aa(lp363
F542.979
aF543.159
aV  wordPlacementMarker1302 it wordPlacementMarker1303 will wordPlacementMarker1304 copy wordPlacementMarker1305 the wordPlacementMarker1306 rule wordPlacementMarker1307 down wordPlacementMarker1308 to wordPlacementMarker1309 the wordPlacementMarker1310 constructor 
p364
aa(lp365
F545.518
aF545.689
aV  wordPlacementMarker1311 and wordPlacementMarker1312 you wordPlacementMarker1313 will wordPlacementMarker1314 be wordPlacementMarker1315 able wordPlacementMarker1316 to wordPlacementMarker1317 create wordPlacementMarker1318 a wordPlacementMarker1319 similar wordPlacementMarker1320 rule  
p366
aa(lp367
F548.024
aF551.221
aV wordPlacementMarker1321 If wordPlacementMarker1322 you wordPlacementMarker1323 press wordPlacementMarker1324 the wordPlacementMarker1325 red wordPlacementMarker1326 delete wordPlacementMarker1327 button 
p368
aa(lp369
F552.933
aF553.115
aV  wordPlacementMarker1328 it wordPlacementMarker1329 will wordPlacementMarker1330 delete wordPlacementMarker1331 the wordPlacementMarker1332 rule wordPlacementMarker1333 from wordPlacementMarker1334 the wordPlacementMarker1335 set  
p370
aa(lp371
F555.058
aF558.257
aV wordPlacementMarker1336 three  
p372
aa(lp373
F558.798
aF560.489
aV wordPlacementMarker1337 Since wordPlacementMarker1338 your wordPlacementMarker1339 rule wordPlacementMarker1340 set wordPlacementMarker1341 needs wordPlacementMarker1342 to wordPlacementMarker1343 make wordPlacementMarker1344 a wordPlacementMarker1345 single wordPlacementMarker1346 choice wordPlacementMarker1347 each wordPlacementMarker1348 period 
p374
aa(lp375
F563.82
aF564.013
aV  wordPlacementMarker1349 it wordPlacementMarker1350 is wordPlacementMarker1351 not wordPlacementMarker1352 possible wordPlacementMarker1353 to wordPlacementMarker1354 have wordPlacementMarker1355 two wordPlacementMarker1356 rules wordPlacementMarker1357 with wordPlacementMarker1358 the wordPlacementMarker1359 same wordPlacementMarker1360 input wordPlacementMarker1361 sequence 
p376
aa(lp377
F567.844
aF568.055
aV  wordPlacementMarker1362 but wordPlacementMarker1363 with wordPlacementMarker1364 different wordPlacementMarker1365 outputs  
p378
aa(lp379
F569.356
aF570.554
aV wordPlacementMarker1366 If wordPlacementMarker1367 you wordPlacementMarker1368 create wordPlacementMarker1369 a wordPlacementMarker1370 rule wordPlacementMarker1371 that wordPlacementMarker1372 has wordPlacementMarker1373 the wordPlacementMarker1374 same wordPlacementMarker1375 input wordPlacementMarker1376 sequence wordPlacementMarker1377 but wordPlacementMarker1378 a wordPlacementMarker1379 different wordPlacementMarker1380 output 
p380
aa(lp381
F574.503
aF574.688
aV  wordPlacementMarker1381 you wordPlacementMarker1382 will wordPlacementMarker1383 get wordPlacementMarker1384 an wordPlacementMarker1385 error wordPlacementMarker1386 that wordPlacementMarker1387 says wordPlacementMarker1388 Conflicting wordPlacementMarker1389 rule wordPlacementMarker1390 in wordPlacementMarker1391 set 
p382
aa(lp383
F577.554
aF577.753
aV  wordPlacementMarker1392 and wordPlacementMarker1393 a wordPlacementMarker1394 button wordPlacementMarker1395 that wordPlacementMarker1396 says wordPlacementMarker1397 Switch wordPlacementMarker1398 Rule wordPlacementMarker1399 will wordPlacementMarker1400 appear  
p384
aa(lp385
F580.174
aF581.364
aV wordPlacementMarker1401 If wordPlacementMarker1402 you wordPlacementMarker1403 press wordPlacementMarker1404 this wordPlacementMarker1405 button 
p386
aa(lp387
F582.676
aF582.857
aV  wordPlacementMarker1406 it wordPlacementMarker1407 will wordPlacementMarker1408 delete wordPlacementMarker1409 the wordPlacementMarker1410 conflicting wordPlacementMarker1411 rule wordPlacementMarker1412 from wordPlacementMarker1413 the wordPlacementMarker1414 rule wordPlacementMarker1415 set 
p388
aa(lp389
F585.412
aF585.599
aV  wordPlacementMarker1416 and wordPlacementMarker1417 add wordPlacementMarker1418 the wordPlacementMarker1419 rule wordPlacementMarker1420 from wordPlacementMarker1421 the wordPlacementMarker1422 constructor  
p390
aa(lp391
F587.566
aF590.759
aV wordPlacementMarker1423 The wordPlacementMarker1424 length wordPlacementMarker1425 of wordPlacementMarker1426 the wordPlacementMarker1427 rule wordPlacementMarker1428 is wordPlacementMarker1429 measured wordPlacementMarker1430 by wordPlacementMarker1431 the wordPlacementMarker1432 length wordPlacementMarker1433 of wordPlacementMarker1434 the wordPlacementMarker1435 input wordPlacementMarker1436 sequence  
p392
aa(lp393
F594.152
aF595.343
aV wordPlacementMarker1437 So wordPlacementMarker1438 rule wordPlacementMarker1439  number two 
p394
aa(lp395
F596.809
aF597.003
aV  wordPlacementMarker1440 and wordPlacementMarker1441 rule wordPlacementMarker1442  number three wordPlacementMarker1443 have wordPlacementMarker1444 a wordPlacementMarker1445 length wordPlacementMarker1446 of wordPlacementMarker1447 three 
p396
aa(lp397
F599.379
aF599.57
aV  wordPlacementMarker1448 and wordPlacementMarker1449 rule wordPlacementMarker1450  number four wordPlacementMarker1451 has wordPlacementMarker1452 a wordPlacementMarker1453 length wordPlacementMarker1454 of wordPlacementMarker1455 two  
p398
aa(lp399
F601.836
aF603.014
aV wordPlacementMarker1456 A wordPlacementMarker1457 rule wordPlacementMarker1458 of wordPlacementMarker1459 length wordPlacementMarker1460 n wordPlacementMarker1461 is wordPlacementMarker1462 said wordPlacementMarker1463 to wordPlacementMarker1464 fit wordPlacementMarker1465 the wordPlacementMarker1466 history wordPlacementMarker1467 if wordPlacementMarker1468 the wordPlacementMarker1469 input wordPlacementMarker1470 sequence wordPlacementMarker1471 matches wordPlacementMarker1472 the wordPlacementMarker1473 last wordPlacementMarker1474 n wordPlacementMarker1475 periods wordPlacementMarker1476 of wordPlacementMarker1477 the wordPlacementMarker1478 history  
p400
aa(lp401
F609.057
aF610.261
aV wordPlacementMarker1479 For wordPlacementMarker1480 example 
p402
aa(lp403
F611.253
aF611.421
aV  wordPlacementMarker1481 since wordPlacementMarker1482 the wordPlacementMarker1483 last wordPlacementMarker1484 three wordPlacementMarker1485 periods wordPlacementMarker1486 of wordPlacementMarker1487 play wordPlacementMarker1488 in wordPlacementMarker1489 the wordPlacementMarker1490 above wordPlacementMarker1491 history 
p404
aa(lp405
F614.455
aF615.164
aV wordPlacementMarker1492  periods wordPlacementMarker1493 forty two wordPlacementMarker1494 through wordPlacementMarker1495 forty four  
p406
aa(lp407
F617.282
aF617.986
aV wordPlacementMarker1496 have wordPlacementMarker1497 been 
p408
aa(lp409
F618.641
aF619.342
aV wordPlacementMarker1498  Y 
p410
aa(lp411
F619.842
aF620.008
aV  wordPlacementMarker1499 Y  
p412
aa(lp413
F620.49
aF621.901
aV wordPlacementMarker1500  W 
p414
aa(lp415
F622.549
aF622.766
aV  wordPlacementMarker1501 W  
p416
aa(lp417
F623.312
aF624.001
aV wordPlacementMarker1502 and 
p418
aa(lp419
F624.456
aF625.151
aV wordPlacementMarker1503  Y 
p420
aa(lp421
F625.643
aF625.835
aV  wordPlacementMarker1504 W  
p422
aa(lp423
F626.381
aF627.063
aV wordPlacementMarker1505 and wordPlacementMarker1506 that wordPlacementMarker1507 sequence wordPlacementMarker1508 is wordPlacementMarker1509 also wordPlacementMarker1510 the wordPlacementMarker1511 input wordPlacementMarker1512 for wordPlacementMarker1513 rule wordPlacementMarker1514  number two 
p424
aa(lp425
F630.27
aF631.465
aV wordPlacementMarker1515 then wordPlacementMarker1516 rule wordPlacementMarker1517  number two wordPlacementMarker1518 is wordPlacementMarker1519 said wordPlacementMarker1520 to wordPlacementMarker1521 fit wordPlacementMarker1522 the wordPlacementMarker1523 history  
p426
aa(lp427
F633.948
aF635.144
aV wordPlacementMarker1524 Similarly 
p428
aa(lp429
F635.966
aF636.165
aV  wordPlacementMarker1525 given wordPlacementMarker1526 the wordPlacementMarker1527 above wordPlacementMarker1528 history 
p430
aa(lp431
F637.557
aF637.742
aV  wordPlacementMarker1529 we wordPlacementMarker1530 can wordPlacementMarker1531 see wordPlacementMarker1532 that wordPlacementMarker1533 rule wordPlacementMarker1534  number four wordPlacementMarker1535 fits wordPlacementMarker1536 the wordPlacementMarker1537 history 
p432
aa(lp433
F640.567
aF641.755
aV wordPlacementMarker1538 but wordPlacementMarker1539 rule wordPlacementMarker1540  number three wordPlacementMarker1541 does wordPlacementMarker1542 not wordPlacementMarker1543 fit wordPlacementMarker1544 the wordPlacementMarker1545 history  
p434
aa(lp435
F644.319
aF645.512
aV wordPlacementMarker1546 If wordPlacementMarker1547 more wordPlacementMarker1548 than wordPlacementMarker1549 one wordPlacementMarker1550 rule wordPlacementMarker1551 fits wordPlacementMarker1552 the wordPlacementMarker1553 history 
p436
aa(lp437
F647.75
aF647.94
aV  wordPlacementMarker1554 then wordPlacementMarker1555 the wordPlacementMarker1556 rule wordPlacementMarker1557 with wordPlacementMarker1558 the wordPlacementMarker1559 longer wordPlacementMarker1560 length wordPlacementMarker1561 will wordPlacementMarker1562 determine wordPlacementMarker1563 the wordPlacementMarker1564 choice  
p438
aa(lp439
F650.982
aF652.198
aV wordPlacementMarker1565 For wordPlacementMarker1566 example 
p440
aa(lp441
F653.186
aF653.367
aV  wordPlacementMarker1567 given wordPlacementMarker1568 the wordPlacementMarker1569 above wordPlacementMarker1570 history wordPlacementMarker1571 since wordPlacementMarker1572 both wordPlacementMarker1573 rule wordPlacementMarker1574  number two 
p442
aa(lp443
F656.23
aF656.423
aV  wordPlacementMarker1575 and wordPlacementMarker1576 rule wordPlacementMarker1577  number four wordPlacementMarker1578 fit wordPlacementMarker1579 the wordPlacementMarker1580 history 
p444
aa(lp445
F658.537
aF658.714
aV  wordPlacementMarker1581 rule wordPlacementMarker1582  number two wordPlacementMarker1583 will wordPlacementMarker1584 be wordPlacementMarker1585 used wordPlacementMarker1586 to wordPlacementMarker1587 make wordPlacementMarker1588 your wordPlacementMarker1589 choice 
p446
aa(lp447
F661.212
aF661.399
aV  wordPlacementMarker1590 since wordPlacementMarker1591 it wordPlacementMarker1592 is wordPlacementMarker1593 longer  
p448
aa(lp449
F662.656
aF663.846
aV wordPlacementMarker1594 Therefore 
p450
aa(lp451
F664.574
aF664.766
aV  wordPlacementMarker1595 given wordPlacementMarker1596 the wordPlacementMarker1597 history 
p452
aa(lp453
F665.826
aF666.005
aV  wordPlacementMarker1598 and wordPlacementMarker1599 the wordPlacementMarker1600 rule wordPlacementMarker1601 set 
p454
aa(lp455
F666.952
aF667.141
aV  wordPlacementMarker1602 your wordPlacementMarker1603 choice wordPlacementMarker1604 next wordPlacementMarker1605 period wordPlacementMarker1606 will wordPlacementMarker1607 be wordPlacementMarker1608 W 
p456
aa(lp457
F669.609
aF669.796
aV  wordPlacementMarker1609 as wordPlacementMarker1610 prescribed wordPlacementMarker1611 by wordPlacementMarker1612 rule wordPlacementMarker1613  number two  
p458
aa(lp459
F671.832
aF675.012
aV wordPlacementMarker1614 If wordPlacementMarker1615 no wordPlacementMarker1616 rules wordPlacementMarker1617 fit wordPlacementMarker1618 the wordPlacementMarker1619 history 
p460
aa(lp461
F676.754
aF676.934
aV  wordPlacementMarker1620 then wordPlacementMarker1621 your wordPlacementMarker1622 Default wordPlacementMarker1623 Rule wordPlacementMarker1624 will wordPlacementMarker1625 be wordPlacementMarker1626 selected  
p462
aa(lp463
F679.108
aF680.304
aV wordPlacementMarker1627 The wordPlacementMarker1628 default wordPlacementMarker1629 rule wordPlacementMarker1630 will wordPlacementMarker1631 only wordPlacementMarker1632 be wordPlacementMarker1633 used wordPlacementMarker1634 when wordPlacementMarker1635 no wordPlacementMarker1636 rules wordPlacementMarker1637 fit wordPlacementMarker1638 the wordPlacementMarker1639 history  
p464
aa(lp465
F683.835
aF685.046
aV wordPlacementMarker1640 To wordPlacementMarker1641 select wordPlacementMarker1642 your wordPlacementMarker1643 default wordPlacementMarker1644 rule wordPlacementMarker1645 select wordPlacementMarker1646 either wordPlacementMarker1647 W 
p466
aa(lp467
F687.706
aF687.891
aV  wordPlacementMarker1648 or wordPlacementMarker1649 Y 
p468
aa(lp469
F688.526
aF688.689
aV  wordPlacementMarker1650 in wordPlacementMarker1651 the wordPlacementMarker1652 bottom wordPlacementMarker1653 left wordPlacementMarker1654 of wordPlacementMarker1655 your wordPlacementMarker1656 screen  
p470
aa(lp471
F690.414
aF691.608
aV wordPlacementMarker1657 Additionally 
p472
aa(lp473
F692.469
aF692.658
aV  wordPlacementMarker1658 you wordPlacementMarker1659 have wordPlacementMarker1660 to wordPlacementMarker1661 select wordPlacementMarker1662 the wordPlacementMarker1663 First wordPlacementMarker1664 Period wordPlacementMarker1665 rule  
p474
aa(lp475
F694.66
aF695.845
aV wordPlacementMarker1666 The wordPlacementMarker1667 first wordPlacementMarker1668 period wordPlacementMarker1669 rule wordPlacementMarker1670 will wordPlacementMarker1671 only wordPlacementMarker1672 be wordPlacementMarker1673 used wordPlacementMarker1674 in wordPlacementMarker1675 the wordPlacementMarker1676 first wordPlacementMarker1677 period wordPlacementMarker1678 of wordPlacementMarker1679 the wordPlacementMarker1680 match  
p476
aa(lp477
F699.757
aF700.963
aV wordPlacementMarker1681 To wordPlacementMarker1682 select wordPlacementMarker1683 your wordPlacementMarker1684 first wordPlacementMarker1685 period wordPlacementMarker1686 rule wordPlacementMarker1687 select wordPlacementMarker1688 either wordPlacementMarker1689 W 
p478
aa(lp479
F703.987
aF704.171
aV  wordPlacementMarker1690 or wordPlacementMarker1691 Y 
p480
aa(lp481
F704.813
aF704.968
aV  wordPlacementMarker1692 in wordPlacementMarker1693 the wordPlacementMarker1694 bottom wordPlacementMarker1695 left wordPlacementMarker1696 of wordPlacementMarker1697 your wordPlacementMarker1698 screen  
p482
aa(lp483
F706.695
aF708.59
aV wordPlacementMarker1699 Additional wordPlacementMarker1700 Examples 
p484
aa(lp485
F709.979
aF710.668
aV wordPlacementMarker1701 In wordPlacementMarker1702 the wordPlacementMarker1703 example wordPlacementMarker1704 above 
p486
aa(lp487
F711.993
aF712.176
aV  wordPlacementMarker1705 Rule wordPlacementMarker1706  number four 
p488
aa(lp489
F713.36
aF713.561
aV  wordPlacementMarker1707 and wordPlacementMarker1708 Rule wordPlacementMarker1709  number nine 
p490
aa(lp491
F714.882
aF715.089
aV  wordPlacementMarker1710 both wordPlacementMarker1711 fit wordPlacementMarker1712 the wordPlacementMarker1713 history  
p492
aa(lp493
F716.366
aF717.578
aV wordPlacementMarker1714 However 
p494
aa(lp495
F718.243
aF718.412
aV  wordPlacementMarker1715 rule wordPlacementMarker1716  number nine wordPlacementMarker1717 will wordPlacementMarker1718 be wordPlacementMarker1719 selected wordPlacementMarker1720 because wordPlacementMarker1721 it wordPlacementMarker1722 is wordPlacementMarker1723 longer  
p496
aa(lp497
F721.407
aF722.598
aV wordPlacementMarker1724 Therefore 
p498
aa(lp499
F723.323
aF723.508
aV  wordPlacementMarker1725 W wordPlacementMarker1726 will wordPlacementMarker1727 be wordPlacementMarker1728 played wordPlacementMarker1729 in wordPlacementMarker1730 the wordPlacementMarker1731 next wordPlacementMarker1732 period 
p500
aa(lp501
F725.761
aF725.948
aV  wordPlacementMarker1733 as wordPlacementMarker1734 prescribed wordPlacementMarker1735 by wordPlacementMarker1736 rule wordPlacementMarker1737  number nine  
p502
aa(lp503
F728.08
aF729.263
aV wordPlacementMarker1738 For wordPlacementMarker1739 the wordPlacementMarker1740 example wordPlacementMarker1741 above 
p504
aa(lp505
F730.654
aF730.848
aV  wordPlacementMarker1742 how wordPlacementMarker1743 can wordPlacementMarker1744 we wordPlacementMarker1745 change wordPlacementMarker1746 the wordPlacementMarker1747 rule wordPlacementMarker1748 set wordPlacementMarker1749 to wordPlacementMarker1750 ensure wordPlacementMarker1751 that wordPlacementMarker1752 Y wordPlacementMarker1753 is wordPlacementMarker1754 played wordPlacementMarker1755 next wordPlacementMarker1756 period  
p506
aa(lp507
F734.842
aF736.028
aV wordPlacementMarker1757 There wordPlacementMarker1758 are wordPlacementMarker1759 several wordPlacementMarker1760 ways wordPlacementMarker1761 to wordPlacementMarker1762 make wordPlacementMarker1763 changes wordPlacementMarker1764 to wordPlacementMarker1765 the wordPlacementMarker1766 rule wordPlacementMarker1767 set wordPlacementMarker1768 in wordPlacementMarker1769 order wordPlacementMarker1770 for wordPlacementMarker1771 Y wordPlacementMarker1772 to wordPlacementMarker1773 be wordPlacementMarker1774 played  
p508
aa(lp509
F740.472
aF741.667
aV wordPlacementMarker1775 First 
p510
aa(lp511
F742.204
aF742.39
aV  wordPlacementMarker1776 you wordPlacementMarker1777 can wordPlacementMarker1778 delete wordPlacementMarker1779 Rule wordPlacementMarker1780  number nine 
p512
aa(lp513
F744.301
aF744.485
aV  wordPlacementMarker1781 which wordPlacementMarker1782 would wordPlacementMarker1783 cause wordPlacementMarker1784 Rule wordPlacementMarker1785  number four wordPlacementMarker1786 to wordPlacementMarker1787 be wordPlacementMarker1788 the wordPlacementMarker1789 longest wordPlacementMarker1790 rule wordPlacementMarker1791 that wordPlacementMarker1792 fits wordPlacementMarker1793 the wordPlacementMarker1794 history 
p514
aa(lp515
F748.628
aF748.805
aV  wordPlacementMarker1795 and wordPlacementMarker1796 therefore wordPlacementMarker1797 would wordPlacementMarker1798 lead wordPlacementMarker1799 to wordPlacementMarker1800 Y wordPlacementMarker1801 being wordPlacementMarker1802 played wordPlacementMarker1803 next wordPlacementMarker1804 period  
p516
aa(lp517
F751.714
aF757.899
aV wordPlacementMarker1805 Second 
p518
aa(lp519
F758.498
aF758.68
aV  wordPlacementMarker1806 you wordPlacementMarker1807 can wordPlacementMarker1808 add wordPlacementMarker1809 a wordPlacementMarker1810 longer wordPlacementMarker1811 rule wordPlacementMarker1812 that wordPlacementMarker1813 fits wordPlacementMarker1814 the wordPlacementMarker1815 history wordPlacementMarker1816 that wordPlacementMarker1817 has wordPlacementMarker1818 Y wordPlacementMarker1819 as wordPlacementMarker1820 the wordPlacementMarker1821 output  
p520
aa(lp521
F762.599
aF763.789
aV wordPlacementMarker1822 Since wordPlacementMarker1823 you wordPlacementMarker1824 added wordPlacementMarker1825 a wordPlacementMarker1826 longer wordPlacementMarker1827 rule wordPlacementMarker1828 that wordPlacementMarker1829 fits wordPlacementMarker1830 the wordPlacementMarker1831 history 
p522
aa(lp523
F766.7
aF766.877
aV  wordPlacementMarker1832 that wordPlacementMarker1833 rule wordPlacementMarker1834 will wordPlacementMarker1835 be wordPlacementMarker1836 used wordPlacementMarker1837 to wordPlacementMarker1838 make wordPlacementMarker1839 the wordPlacementMarker1840 choice 
p524
aa(lp525
F769.098
aF769.277
aV  wordPlacementMarker1841 and wordPlacementMarker1842 will wordPlacementMarker1843 select wordPlacementMarker1844 Y wordPlacementMarker1845 as wordPlacementMarker1846 the wordPlacementMarker1847 choice wordPlacementMarker1848 for wordPlacementMarker1849 next wordPlacementMarker1850 period  
p526
aa(lp527
F771.884
aF778.569
aV wordPlacementMarker1851 Number wordPlacementMarker1852 of wordPlacementMarker1853 Periods wordPlacementMarker1854 Per wordPlacementMarker1855 Match 
p528
aa(lp529
F780.302
aF780.998
aV wordPlacementMarker1856 The wordPlacementMarker1857 number wordPlacementMarker1858 of wordPlacementMarker1859 periods wordPlacementMarker1860 in wordPlacementMarker1861 each wordPlacementMarker1862 match wordPlacementMarker1863 will wordPlacementMarker1864 be wordPlacementMarker1865 determined wordPlacementMarker1866 randomly wordPlacementMarker1867 using wordPlacementMarker1868 the wordPlacementMarker1869 following wordPlacementMarker1870 procedure  
p530
aa(lp531
F785.699
aF786.895
aV wordPlacementMarker1871 At wordPlacementMarker1872 the wordPlacementMarker1873 end wordPlacementMarker1874 of wordPlacementMarker1875 each wordPlacementMarker1876 period 
p532
aa(lp533
F788.359
aF788.548
aV  wordPlacementMarker1877 a wordPlacementMarker1878 number wordPlacementMarker1879 will wordPlacementMarker1880 be wordPlacementMarker1881 chosen wordPlacementMarker1882 randomly wordPlacementMarker1883 from wordPlacementMarker1884 the wordPlacementMarker1885 set wordPlacementMarker1886 of wordPlacementMarker1887 numbers wordPlacementMarker1888  
p534
aa(lp535
F791.889
aF792.084
aV one 
p536
aa(lp537
F792.637
aF792.844
aV two 
p538
aa(lp539
F793.345
aF793.544
aV three 
p540
aa(lp541
F794.15
aF794.336
aV  wordPlacementMarker1889 up wordPlacementMarker1890 to 
p542
aa(lp543
F795.003
aF795.211
aV forty eight 
p544
aa(lp545
F796.033
aF796.243
aV forty nine 
p546
aa(lp547
F797.272
aF797.475
aV fifty 
p548
aa(lp549
F798.209
aF798.396
aV  wordPlacementMarker1891 where wordPlacementMarker1892 each wordPlacementMarker1893 number wordPlacementMarker1894 is wordPlacementMarker1895 equally wordPlacementMarker1896 likely  
p550
aa(lp551
F800.323
aF801.517
aV wordPlacementMarker1897 If wordPlacementMarker1898 the wordPlacementMarker1899 number wordPlacementMarker1900 is wordPlacementMarker1901 one 
p552
aa(lp553
F802.904
aF803.096
aV  wordPlacementMarker1902 then wordPlacementMarker1903 the wordPlacementMarker1904 match wordPlacementMarker1905 will wordPlacementMarker1906 end  
p554
aa(lp555
F804.269
aF805.454
aV wordPlacementMarker1907 If wordPlacementMarker1908 the wordPlacementMarker1909 number wordPlacementMarker1910 is wordPlacementMarker1911 not wordPlacementMarker1912 one 
p556
aa(lp557
F807.112
aF807.309
aV  wordPlacementMarker1913 then wordPlacementMarker1914 the wordPlacementMarker1915 match wordPlacementMarker1916 will wordPlacementMarker1917 continue  
p558
aa(lp559
F808.782
aF809.963
aV wordPlacementMarker1918 The wordPlacementMarker1919 number wordPlacementMarker1920 will wordPlacementMarker1921 always wordPlacementMarker1922 be wordPlacementMarker1923 placed wordPlacementMarker1924 back wordPlacementMarker1925 into wordPlacementMarker1926 the wordPlacementMarker1927 set wordPlacementMarker1928 after wordPlacementMarker1929 it wordPlacementMarker1930 is wordPlacementMarker1931 drawn  
p560
aa(lp561
F813.576
aF814.757
aV wordPlacementMarker1932 Thus 
p562
aa(lp563
F815.249
aF815.435
aV  wordPlacementMarker1933 in wordPlacementMarker1934 any wordPlacementMarker1935 period wordPlacementMarker1936 there wordPlacementMarker1937 is wordPlacementMarker1938 a wordPlacementMarker1939 two wordPlacementMarker1940 percent wordPlacementMarker1941 CHANCE wordPlacementMarker1942 that wordPlacementMarker1943 the wordPlacementMarker1944 match wordPlacementMarker1945 will wordPlacementMarker1946 end 
p564
aa(lp565
F819.045
aF819.23
aV  wordPlacementMarker1947 and wordPlacementMarker1948 a wordPlacementMarker1949 ninety eight wordPlacementMarker1950 percent wordPlacementMarker1951 CHANCE wordPlacementMarker1952 that wordPlacementMarker1953 the wordPlacementMarker1954 match wordPlacementMarker1955 will wordPlacementMarker1956 have wordPlacementMarker1957 another wordPlacementMarker1958 period  
p566
aa(lp567
F822.822
aF824.006
aV wordPlacementMarker1959 Therefore 
p568
aa(lp569
F824.737
aF824.915
aV  wordPlacementMarker1960 the wordPlacementMarker1961 expected wordPlacementMarker1962 number wordPlacementMarker1963 of wordPlacementMarker1964 periods wordPlacementMarker1965 in wordPlacementMarker1966 each wordPlacementMarker1967 match wordPlacementMarker1968 will wordPlacementMarker1969 be wordPlacementMarker1970 fifty  
p570
aa(lp571
F828.239
aF829.425
aV wordPlacementMarker1971 This wordPlacementMarker1972 procedure wordPlacementMarker1973 has wordPlacementMarker1974 been wordPlacementMarker1975 performed wordPlacementMarker1976 on wordPlacementMarker1977 the wordPlacementMarker1978 computer wordPlacementMarker1979 before wordPlacementMarker1980 the wordPlacementMarker1981 experiment  
p572
aa(lp573
F833.293
aF834.481
aV wordPlacementMarker1982 Therefore 
p574
aa(lp575
F835.217
aF835.386
aV  wordPlacementMarker1983 you wordPlacementMarker1984 will wordPlacementMarker1985 not wordPlacementMarker1986 see wordPlacementMarker1987 the wordPlacementMarker1988 number wordPlacementMarker1989 selected wordPlacementMarker1990 from wordPlacementMarker1991  
p576
aa(lp577
F837.394
aF837.592
aV one 
p578
aa(lp579
F838.145
aF838.352
aV two 
p580
aa(lp581
F838.853
aF839.053
aV three 
p582
aa(lp583
F839.657
aF839.844
aV  wordPlacementMarker1992 up wordPlacementMarker1993 to 
p584
aa(lp585
F840.512
aF840.719
aV forty eight 
p586
aa(lp587
F841.541
aF841.749
aV forty nine 
p588
aa(lp589
F842.779
aF842.98
aV fifty 
p590
aa(lp591
F843.642
aF844.842
aV wordPlacementMarker1994 To wordPlacementMarker1995 ensure wordPlacementMarker1996 that wordPlacementMarker1997 the wordPlacementMarker1998 length wordPlacementMarker1999 of wordPlacementMarker2000 the wordPlacementMarker2001 match wordPlacementMarker2002 is wordPlacementMarker2003 not wordPlacementMarker2004 dependent wordPlacementMarker2005 on wordPlacementMarker2006 your wordPlacementMarker2007 play 
p592
aa(lp593
F848.251
aF848.436
aV  wordPlacementMarker2008 the wordPlacementMarker2009 number wordPlacementMarker2010 of wordPlacementMarker2011 periods wordPlacementMarker2012 for wordPlacementMarker2013 each wordPlacementMarker2014 match wordPlacementMarker2015 has wordPlacementMarker2016 be wordPlacementMarker2017 written wordPlacementMarker2018 on wordPlacementMarker2019 the wordPlacementMarker2020 board wordPlacementMarker2021 before wordPlacementMarker2022 the wordPlacementMarker2023 experiment 
p594
aa(lp595
F852.839
aF853.039
aV  wordPlacementMarker2024 and wordPlacementMarker2025 will wordPlacementMarker2026 be wordPlacementMarker2027 uncovered wordPlacementMarker2028 at wordPlacementMarker2029 the wordPlacementMarker2030 end wordPlacementMarker2031 of wordPlacementMarker2032 the wordPlacementMarker2033 experiment  
p596
aa(lp597
F855.543
aF856.731
aV wordPlacementMarker2034 Your wordPlacementMarker2035 choices wordPlacementMarker2036 will wordPlacementMarker2037 be wordPlacementMarker2038 determined wordPlacementMarker2039 automatically wordPlacementMarker2040 from wordPlacementMarker2041 your wordPlacementMarker2042 rule wordPlacementMarker2043 set  
p598
aa(lp599
F859.96
aF861.168
aV wordPlacementMarker2044 However 
p600
aa(lp601
F861.829
aF862.001
aV  wordPlacementMarker2045 you wordPlacementMarker2046 will wordPlacementMarker2047 need wordPlacementMarker2048 to wordPlacementMarker2049 confirm wordPlacementMarker2050 the wordPlacementMarker2051 choice wordPlacementMarker2052 within wordPlacementMarker2053 an wordPlacementMarker2054 allotted wordPlacementMarker2055 amount wordPlacementMarker2056 of wordPlacementMarker2057 time  
p602
aa(lp603
F865.175
aF866.38
aV wordPlacementMarker2058 To wordPlacementMarker2059 confirm wordPlacementMarker2060 your wordPlacementMarker2061 choice 
p604
aa(lp605
F867.768
aF867.969
aV  wordPlacementMarker2062 click wordPlacementMarker2063 on wordPlacementMarker2064 your wordPlacementMarker2065 action wordPlacementMarker2066 for wordPlacementMarker2067 the wordPlacementMarker2068 next wordPlacementMarker2069 period wordPlacementMarker2070 within wordPlacementMarker2071 the wordPlacementMarker2072 history wordPlacementMarker2073 at wordPlacementMarker2074 the wordPlacementMarker2075 top wordPlacementMarker2076 of wordPlacementMarker2077 the wordPlacementMarker2078 screen  
p606
aa(lp607
F872.229
aF873.411
aV wordPlacementMarker2079 If wordPlacementMarker2080 you wordPlacementMarker2081 don't wordPlacementMarker2082 confirm wordPlacementMarker2083 the wordPlacementMarker2084 choice wordPlacementMarker2085 within wordPlacementMarker2086 the wordPlacementMarker2087 allotted wordPlacementMarker2088 amount wordPlacementMarker2089 of wordPlacementMarker2090 time 
p608
aa(lp609
F876.944
aF877.128
aV  wordPlacementMarker2091 then wordPlacementMarker2092 the wordPlacementMarker2093 choice wordPlacementMarker2094 will wordPlacementMarker2095 be wordPlacementMarker2096 confirmed wordPlacementMarker2097 automatically wordPlacementMarker2098 at wordPlacementMarker2099 the wordPlacementMarker2100 end wordPlacementMarker2101 of wordPlacementMarker2102 the wordPlacementMarker2103 allotted wordPlacementMarker2104 time  
p610
aa(lp611
F880.857
aF882.042
aV wordPlacementMarker2105 The wordPlacementMarker2106 experiment wordPlacementMarker2107 will wordPlacementMarker2108 not wordPlacementMarker2109 be wordPlacementMarker2110 able wordPlacementMarker2111 to wordPlacementMarker2112 proceed wordPlacementMarker2113 until wordPlacementMarker2114 everyone wordPlacementMarker2115 confirms wordPlacementMarker2116 their wordPlacementMarker2117 choices  
p612
aa(lp613
F886.497
aF887.699
aV wordPlacementMarker2118 Everyone wordPlacementMarker2119 in wordPlacementMarker2120 your wordPlacementMarker2121 group wordPlacementMarker2122 will wordPlacementMarker2123 have wordPlacementMarker2124 the wordPlacementMarker2125 same wordPlacementMarker2126 amount wordPlacementMarker2127 of wordPlacementMarker2128 time wordPlacementMarker2129 allotted wordPlacementMarker2130 in wordPlacementMarker2131 each wordPlacementMarker2132 period  
p614
aa(lp615
F891.932
aF893.82
aV wordPlacementMarker2133 Additional wordPlacementMarker2134 Information wordPlacementMarker2135 about wordPlacementMarker2136 Matches 
p616
aa(lp617
F896.003
aF896.718
aV wordPlacementMarker2137 During wordPlacementMarker2138 matches wordPlacementMarker2139 one wordPlacementMarker2140 through wordPlacementMarker2141 ten wordPlacementMarker2142 you wordPlacementMarker2143 will wordPlacementMarker2144 be wordPlacementMarker2145 able wordPlacementMarker2146 to wordPlacementMarker2147 construct wordPlacementMarker2148 the wordPlacementMarker2149 set wordPlacementMarker2150 of wordPlacementMarker2151 rules wordPlacementMarker2152 to wordPlacementMarker2153 make wordPlacementMarker2154 your wordPlacementMarker2155 choices  
p618
aa(lp619
F901.511
aF902.718
aV wordPlacementMarker2156 All wordPlacementMarker2157 of wordPlacementMarker2158 the wordPlacementMarker2159 rules wordPlacementMarker2160 in wordPlacementMarker2161 your wordPlacementMarker2162 set wordPlacementMarker2163 at wordPlacementMarker2164 the wordPlacementMarker2165 end wordPlacementMarker2166 of wordPlacementMarker2167 one wordPlacementMarker2168 match wordPlacementMarker2169 will wordPlacementMarker2170 remain wordPlacementMarker2171 in wordPlacementMarker2172 your wordPlacementMarker2173 set wordPlacementMarker2174 at wordPlacementMarker2175 the wordPlacementMarker2176 start wordPlacementMarker2177 of wordPlacementMarker2178 the wordPlacementMarker2179 next wordPlacementMarker2180 match  
p620
aa(lp621
F907.822
aF909.03
aV wordPlacementMarker2181 Before wordPlacementMarker2182 the wordPlacementMarker2183 first wordPlacementMarker2184 match 
p622
aa(lp623
F910.417
aF910.608
aV  wordPlacementMarker2185 you wordPlacementMarker2186 will wordPlacementMarker2187 have wordPlacementMarker2188 one wordPlacementMarker2189 minute wordPlacementMarker2190 to wordPlacementMarker2191 look wordPlacementMarker2192 over wordPlacementMarker2193 the wordPlacementMarker2194 payoffs 
p624
aa(lp625
F912.927
aF913.116
aV  wordPlacementMarker2195 and wordPlacementMarker2196 an wordPlacementMarker2197 additional wordPlacementMarker2198 ten wordPlacementMarker2199 minute wordPlacementMarker2200 to wordPlacementMarker2201 construct wordPlacementMarker2202 your wordPlacementMarker2203 rules  
p626
aa(lp627
F915.765
aF917.45
aV wordPlacementMarker2204 Editing wordPlacementMarker2205 your wordPlacementMarker2206 set wordPlacementMarker2207 of wordPlacementMarker2208 rules 
p628
aa(lp629
F918.885
aF919.583
aV wordPlacementMarker2209 In wordPlacementMarker2210 the wordPlacementMarker2211 experiment wordPlacementMarker2212 today wordPlacementMarker2213 you wordPlacementMarker2214 will wordPlacementMarker2215 need wordPlacementMarker2216 to wordPlacementMarker2217 pay wordPlacementMarker2218 a wordPlacementMarker2219 cost wordPlacementMarker2220 to wordPlacementMarker2221 edit wordPlacementMarker2222 rules wordPlacementMarker2223 during wordPlacementMarker2224 the wordPlacementMarker2225 match  
p630
aa(lp631
F923.807
aF925.011
aV wordPlacementMarker2226 More wordPlacementMarker2227 specifically 
p632
aa(lp633
F926.207
aF926.414
aV  wordPlacementMarker2228 Before wordPlacementMarker2229 each wordPlacementMarker2230 match wordPlacementMarker2231 starts 
p634
aa(lp635
F927.926
aF928.112
aV  wordPlacementMarker2232 you wordPlacementMarker2233 can wordPlacementMarker2234 make wordPlacementMarker2235 changes wordPlacementMarker2236 to wordPlacementMarker2237 your wordPlacementMarker2238 set wordPlacementMarker2239 of wordPlacementMarker2240 rules wordPlacementMarker2241 at wordPlacementMarker2242 no wordPlacementMarker2243 cost  
p636
aa(lp637
F931.093
aF932.277
aV wordPlacementMarker2244 After wordPlacementMarker2245 each wordPlacementMarker2246 match wordPlacementMarker2247 starts 
p638
aa(lp639
F933.782
aF933.967
aV  wordPlacementMarker2248 if wordPlacementMarker2249 you wordPlacementMarker2250 want wordPlacementMarker2251 to wordPlacementMarker2252 make wordPlacementMarker2253 changes wordPlacementMarker2254 to wordPlacementMarker2255 your wordPlacementMarker2256 set wordPlacementMarker2257 of wordPlacementMarker2258 rules 
p640
aa(lp641
F936.517
aF936.706
aV  wordPlacementMarker2259 you wordPlacementMarker2260 must wordPlacementMarker2261 click wordPlacementMarker2262 the wordPlacementMarker2263 Unlock wordPlacementMarker2264 Rules wordPlacementMarker2265 button  
p642
aa(lp643
F938.633
aF939.833
aV wordPlacementMarker2266 The wordPlacementMarker2267 cost wordPlacementMarker2268 for wordPlacementMarker2269 clicking wordPlacementMarker2270 the wordPlacementMarker2271 Unlock wordPlacementMarker2272 Rules wordPlacementMarker2273 button wordPlacementMarker2274 is wordPlacementMarker2275 zero wordPlacementMarker2276 Francs  
p644
aa(lp645
F943.374
aF944.569
aV wordPlacementMarker2277 The wordPlacementMarker2278 total wordPlacementMarker2279 cost wordPlacementMarker2280 incurred wordPlacementMarker2281 in wordPlacementMarker2282 all wordPlacementMarker2283 matches wordPlacementMarker2284 will wordPlacementMarker2285 be wordPlacementMarker2286 displayed wordPlacementMarker2287 at wordPlacementMarker2288 the wordPlacementMarker2289 top wordPlacementMarker2290 of wordPlacementMarker2291 the wordPlacementMarker2292 screen wordPlacementMarker2293 in wordPlacementMarker2294 red  
p646
aa(lp647
F949.182
aF950.352
aV wordPlacementMarker2295 You wordPlacementMarker2296 will wordPlacementMarker2297 be wordPlacementMarker2298 able wordPlacementMarker2299 to wordPlacementMarker2300 edit wordPlacementMarker2301 your wordPlacementMarker2302 rules wordPlacementMarker2303 for wordPlacementMarker2304 the wordPlacementMarker2305 duration wordPlacementMarker2306 of wordPlacementMarker2307 one wordPlacementMarker2308 period  
p648
aa(lp649
F953.811
aF955.013
aV wordPlacementMarker2309 Once wordPlacementMarker2310 you wordPlacementMarker2311 are wordPlacementMarker2312 done wordPlacementMarker2313 editing wordPlacementMarker2314 your wordPlacementMarker2315 rules wordPlacementMarker2316 you wordPlacementMarker2317 may wordPlacementMarker2318 click wordPlacementMarker2319 the wordPlacementMarker2320 Lock wordPlacementMarker2321 Rules wordPlacementMarker2322 button  
p650
aa(lp651
F958.38
aF959.565
aV wordPlacementMarker2323 If wordPlacementMarker2324 you wordPlacementMarker2325 don't wordPlacementMarker2326 want wordPlacementMarker2327 to wordPlacementMarker2328 make wordPlacementMarker2329 changes wordPlacementMarker2330 to wordPlacementMarker2331 your wordPlacementMarker2332 set wordPlacementMarker2333 of wordPlacementMarker2334 rules 
p652
aa(lp653
F962.363
aF962.552
aV  wordPlacementMarker2335 you wordPlacementMarker2336 may wordPlacementMarker2337 choose wordPlacementMarker2338 not wordPlacementMarker2339 to wordPlacementMarker2340 click wordPlacementMarker2341 the wordPlacementMarker2342 Unlock wordPlacementMarker2343 Rule wordPlacementMarker2344 button  
p654
aa(lp655
F964.947
aF966.133
aV wordPlacementMarker2345 Then wordPlacementMarker2346 you wordPlacementMarker2347 will wordPlacementMarker2348 not wordPlacementMarker2349 incur wordPlacementMarker2350 the wordPlacementMarker2351 cost wordPlacementMarker2352 of wordPlacementMarker2353 zero wordPlacementMarker2354 Francs  
p656
aa(lp657
F968.843
aF970.031
aV wordPlacementMarker2355 In wordPlacementMarker2356 either wordPlacementMarker2357 case 
p658
aa(lp659
F970.943
aF971.133
aV  wordPlacementMarker2358 you wordPlacementMarker2359 will wordPlacementMarker2360 need wordPlacementMarker2361 to wordPlacementMarker2362 confirm wordPlacementMarker2363 the wordPlacementMarker2364 choice wordPlacementMarker2365 made wordPlacementMarker2366 within wordPlacementMarker2367 the wordPlacementMarker2368 time wordPlacementMarker2369 limit wordPlacementMarker2370 set wordPlacementMarker2371 for wordPlacementMarker2372 each wordPlacementMarker2373 period  
p660
aa(lp661
F974.955
aF976.145
aV wordPlacementMarker2374 If wordPlacementMarker2375 the wordPlacementMarker2376 time wordPlacementMarker2377 limit wordPlacementMarker2378 within wordPlacementMarker2379 a wordPlacementMarker2380 period wordPlacementMarker2381 is wordPlacementMarker2382 reached 
p662
aa(lp663
F978.58
aF978.769
aV  wordPlacementMarker2383 your wordPlacementMarker2384 rules wordPlacementMarker2385 will wordPlacementMarker2386 become wordPlacementMarker2387 locked 
p664
aa(lp665
F980.502
aF980.674
aV  wordPlacementMarker2388 your wordPlacementMarker2389 choice wordPlacementMarker2390 will wordPlacementMarker2391 be wordPlacementMarker2392 confirmed wordPlacementMarker2393 automatically 
p666
aa(lp667
F982.946
aF983.123
aV  wordPlacementMarker2394 and wordPlacementMarker2395 you wordPlacementMarker2396 will wordPlacementMarker2397 proceed wordPlacementMarker2398 to wordPlacementMarker2399 the wordPlacementMarker2400 next wordPlacementMarker2401 period  
p668
aa(lp669
F985.218
aF986.904
aV wordPlacementMarker2402 Starting wordPlacementMarker2403 Rules 
p670
aa(lp671
F987.955
aF988.664
aV wordPlacementMarker2404 Prior wordPlacementMarker2405 to wordPlacementMarker2406 the wordPlacementMarker2407 start wordPlacementMarker2408 of wordPlacementMarker2409 the wordPlacementMarker2410 experiment wordPlacementMarker2411 you wordPlacementMarker2412 will wordPlacementMarker2413 have wordPlacementMarker2414 ten wordPlacementMarker2415 minutes wordPlacementMarker2416 to wordPlacementMarker2417 construct wordPlacementMarker2418 your wordPlacementMarker2419 starting wordPlacementMarker2420 set wordPlacementMarker2421 of wordPlacementMarker2422 rules  
p672
aa(lp673
F993.867
aF995.059
aV wordPlacementMarker2423 During wordPlacementMarker2424 that wordPlacementMarker2425 time 
p674
aa(lp675
F996.052
aF996.217
aV  wordPlacementMarker2426 you wordPlacementMarker2427 will wordPlacementMarker2428 be wordPlacementMarker2429 presented wordPlacementMarker2430 with wordPlacementMarker2431 a wordPlacementMarker2432 split screen wordPlacementMarker2433 view wordPlacementMarker2434 of wordPlacementMarker2435 of wordPlacementMarker2436 the wordPlacementMarker2437 construction wordPlacementMarker2438 screen  
p676
aa(lp677
F999.949
aF1001.131
aV wordPlacementMarker2439 In wordPlacementMarker2440 this wordPlacementMarker2441 view 
p678
aa(lp679
F1002.015
aF1002.197
aV  wordPlacementMarker2442 you wordPlacementMarker2443 will wordPlacementMarker2444 have wordPlacementMarker2445 an wordPlacementMarker2446 opportunity wordPlacementMarker2447 to wordPlacementMarker2448 test wordPlacementMarker2449 what wordPlacementMarker2450 your wordPlacementMarker2451 rule wordPlacementMarker2452 set wordPlacementMarker2453 will wordPlacementMarker2454 select wordPlacementMarker2455 as wordPlacementMarker2456 an wordPlacementMarker2457 output wordPlacementMarker2458 for wordPlacementMarker2459 a wordPlacementMarker2460 variety wordPlacementMarker2461 of wordPlacementMarker2462 hypothetical wordPlacementMarker2463 histories  
p680
aa(lp681
F1008.547
aF1009.74
aV wordPlacementMarker2464 The wordPlacementMarker2465 split screen wordPlacementMarker2466 will wordPlacementMarker2467 consist wordPlacementMarker2468 of wordPlacementMarker2469 two wordPlacementMarker2470 sides  
p682
aa(lp683
F1012.194
aF1013.394
aV wordPlacementMarker2471 The wordPlacementMarker2472 right wordPlacementMarker2473 side wordPlacementMarker2474 is wordPlacementMarker2475 the wordPlacementMarker2476 Starting wordPlacementMarker2477 Rules wordPlacementMarker2478 side  
p684
aa(lp685
F1015.819
aF1017.008
aV wordPlacementMarker2479 Rules wordPlacementMarker2480 added wordPlacementMarker2481 to wordPlacementMarker2482 this wordPlacementMarker2483 side wordPlacementMarker2484 will wordPlacementMarker2485 be wordPlacementMarker2486 added wordPlacementMarker2487 to wordPlacementMarker2488 your wordPlacementMarker2489 rule wordPlacementMarker2490 set wordPlacementMarker2491 at wordPlacementMarker2492 the wordPlacementMarker2493 start wordPlacementMarker2494 of wordPlacementMarker2495 the wordPlacementMarker2496 first wordPlacementMarker2497 match  
p686
aa(lp687
F1021.139
aF1022.334
aV wordPlacementMarker2498 The wordPlacementMarker2499 left wordPlacementMarker2500 side wordPlacementMarker2501 is wordPlacementMarker2502 the wordPlacementMarker2503 Hypothetical wordPlacementMarker2504 Rules wordPlacementMarker2505 side  
p688
aa(lp689
F1024.944
aF1026.135
aV wordPlacementMarker2506 Rules wordPlacementMarker2507 added wordPlacementMarker2508 to wordPlacementMarker2509 this wordPlacementMarker2510 side wordPlacementMarker2511 can wordPlacementMarker2512 be wordPlacementMarker2513 used wordPlacementMarker2514 to wordPlacementMarker2515 test wordPlacementMarker2516 to wordPlacementMarker2517 see wordPlacementMarker2518 what wordPlacementMarker2519 choices wordPlacementMarker2520 different wordPlacementMarker2521 combinations wordPlacementMarker2522 of wordPlacementMarker2523 rules wordPlacementMarker2524 will wordPlacementMarker2525 lead wordPlacementMarker2526 to  
p690
aa(lp691
F1032.076
aF1033.253
aV wordPlacementMarker2527 You wordPlacementMarker2528 will wordPlacementMarker2529 be wordPlacementMarker2530 able wordPlacementMarker2531 to wordPlacementMarker2532 move wordPlacementMarker2533 rules wordPlacementMarker2534 from wordPlacementMarker2535 the wordPlacementMarker2536 Hypothetical wordPlacementMarker2537 Rules wordPlacementMarker2538 side wordPlacementMarker2539 to wordPlacementMarker2540 the wordPlacementMarker2541 Starting wordPlacementMarker2542 Rules wordPlacementMarker2543 side wordPlacementMarker2544 by wordPlacementMarker2545 clicking wordPlacementMarker2546 the wordPlacementMarker2547 blue wordPlacementMarker2548 move wordPlacementMarker2549 button  
p692
aa(lp693
F1039.603
aF1040.804
aV wordPlacementMarker2550 To wordPlacementMarker2551 delete wordPlacementMarker2552 rules wordPlacementMarker2553 from wordPlacementMarker2554 either wordPlacementMarker2555 side 
p694
aa(lp695
F1042.804
aF1042.973
aV  wordPlacementMarker2556 you wordPlacementMarker2557 need wordPlacementMarker2558 to wordPlacementMarker2559 click wordPlacementMarker2560 the wordPlacementMarker2561 delete wordPlacementMarker2562 button  
p696
aa(lp697
F1044.597
aF1045.776
aV wordPlacementMarker2563 You wordPlacementMarker2564 will wordPlacementMarker2565 be wordPlacementMarker2566 able wordPlacementMarker2567 to wordPlacementMarker2568 see wordPlacementMarker2569 what wordPlacementMarker2570 choice wordPlacementMarker2571 your wordPlacementMarker2572 hypothetical 
p698
aa(lp699
F1048.522
aF1048.706
aV  wordPlacementMarker2573 and wordPlacementMarker2574 your wordPlacementMarker2575 starting wordPlacementMarker2576 rule wordPlacementMarker2577 sets wordPlacementMarker2578 select wordPlacementMarker2579 as wordPlacementMarker2580 a wordPlacementMarker2581 choice wordPlacementMarker2582 for wordPlacementMarker2583 next wordPlacementMarker2584 period 
p700
aa(lp701
F1051.996
aF1052.202
aV  wordPlacementMarker2585 for wordPlacementMarker2586 each wordPlacementMarker2587 of wordPlacementMarker2588 the wordPlacementMarker2589 hypothetical wordPlacementMarker2590 histories wordPlacementMarker2591 that wordPlacementMarker2592 you wordPlacementMarker2593 construct  
p702
aa(lp703
F1055.26
aF1056.44
aV wordPlacementMarker2594 Notice wordPlacementMarker2595 that wordPlacementMarker2596 you wordPlacementMarker2597 will wordPlacementMarker2598 be wordPlacementMarker2599 able wordPlacementMarker2600 to wordPlacementMarker2601 construct 
p704
aa(lp705
F1058.638
aF1058.821
aV  wordPlacementMarker2602 and wordPlacementMarker2603 store 
p706
aa(lp707
F1059.457
aF1059.639
aV  wordPlacementMarker2604 multiple wordPlacementMarker2605 histories wordPlacementMarker2606 at wordPlacementMarker2607 the wordPlacementMarker2608 same wordPlacementMarker2609 time  
p708
aa(lp709
F1061.848
aF1063.034
aV wordPlacementMarker2610 You wordPlacementMarker2611 can wordPlacementMarker2612 view wordPlacementMarker2613 one wordPlacementMarker2614 of wordPlacementMarker2615 the wordPlacementMarker2616 other wordPlacementMarker2617 hypothetical wordPlacementMarker2618 histories wordPlacementMarker2619 by wordPlacementMarker2620 clicking wordPlacementMarker2621 the wordPlacementMarker2622 History wordPlacementMarker2623  number  wordPlacementMarker2624 button wordPlacementMarker2625 at wordPlacementMarker2626 the wordPlacementMarker2627 top wordPlacementMarker2628 of wordPlacementMarker2629 the wordPlacementMarker2630 Hypothetical wordPlacementMarker2631 Rules wordPlacementMarker2632 side  
p710
aa(lp711
F1070.141
aF1071.327
aV wordPlacementMarker2633 You wordPlacementMarker2634 can wordPlacementMarker2635 add wordPlacementMarker2636 a wordPlacementMarker2637 new wordPlacementMarker2638 hypothetical wordPlacementMarker2639 history wordPlacementMarker2640 by wordPlacementMarker2641 clicking wordPlacementMarker2642 the wordPlacementMarker2643 New wordPlacementMarker2644 button wordPlacementMarker2645 at wordPlacementMarker2646 the wordPlacementMarker2647 top wordPlacementMarker2648 of wordPlacementMarker2649 the wordPlacementMarker2650 Hypothetical wordPlacementMarker2651 Rules wordPlacementMarker2652 side  
p712
aa(lp713
F1077.009
aF1078.245
aV wordPlacementMarker2653 To wordPlacementMarker2654 construct wordPlacementMarker2655 a wordPlacementMarker2656 hypothetical wordPlacementMarker2657 history wordPlacementMarker2658 you wordPlacementMarker2659 will wordPlacementMarker2660 need wordPlacementMarker2661 to wordPlacementMarker2662 click wordPlacementMarker2663 on wordPlacementMarker2664 the wordPlacementMarker2665 question wordPlacementMarker2666 marks wordPlacementMarker2667 in wordPlacementMarker2668 that wordPlacementMarker2669 history  
p714
aa(lp715
F1083.358
aF1084.547
aV wordPlacementMarker2670 You wordPlacementMarker2671 don't wordPlacementMarker2672 need wordPlacementMarker2673 to wordPlacementMarker2674 fill wordPlacementMarker2675 out wordPlacementMarker2676 the wordPlacementMarker2677 entire wordPlacementMarker2678 history wordPlacementMarker2679 to wordPlacementMarker2680 see wordPlacementMarker2681 what wordPlacementMarker2682 choice wordPlacementMarker2683 your wordPlacementMarker2684 rule wordPlacementMarker2685 set wordPlacementMarker2686 will wordPlacementMarker2687 make  
p716
aa(lp717
F1088.985
aF1090.183
aV wordPlacementMarker2688 Therefore 
p718
aa(lp719
F1090.919
aF1091.09
aV  wordPlacementMarker2689 it wordPlacementMarker2690 is wordPlacementMarker2691 useful wordPlacementMarker2692 to wordPlacementMarker2693 start wordPlacementMarker2694 filling wordPlacementMarker2695 out wordPlacementMarker2696 the wordPlacementMarker2697 new wordPlacementMarker2698 histories wordPlacementMarker2699 from wordPlacementMarker2700 the wordPlacementMarker2701 most wordPlacementMarker2702 recent wordPlacementMarker2703 periods wordPlacementMarker2704 on wordPlacementMarker2705 the wordPlacementMarker2706 right wordPlacementMarker2707 side  
p720
aa(lp721
F1096.251
aF1097.434
aV wordPlacementMarker2708 Let's wordPlacementMarker2709 look wordPlacementMarker2710 at wordPlacementMarker2711 an wordPlacementMarker2712 example  
p722
aa(lp723
F1098.925
aF1100.133
aV wordPlacementMarker2713 Five wordPlacementMarker2714 periods wordPlacementMarker2715 of wordPlacementMarker2716 hypothetical wordPlacementMarker2717 History wordPlacementMarker2718  number four wordPlacementMarker2719 have wordPlacementMarker2720 been wordPlacementMarker2721 filled wordPlacementMarker2722 in  
p724
aa(lp725
F1104.208
aF1105.397
aV wordPlacementMarker2723 The wordPlacementMarker2724 hypothetical wordPlacementMarker2725 rule wordPlacementMarker2726 set wordPlacementMarker2727 will wordPlacementMarker2728 play wordPlacementMarker2729 W wordPlacementMarker2730 after wordPlacementMarker2731 this wordPlacementMarker2732 history wordPlacementMarker2733 occurs  
p726
aa(lp727
F1109.418
aF1110.608
aV wordPlacementMarker2734 The wordPlacementMarker2735 starting wordPlacementMarker2736 rule wordPlacementMarker2737 set wordPlacementMarker2738 will wordPlacementMarker2739 play wordPlacementMarker2740 Y wordPlacementMarker2741 after wordPlacementMarker2742 this wordPlacementMarker2743 history wordPlacementMarker2744 occurs  
p728
aa(lp729
F1114.169
aF1120.354
aV wordPlacementMarker2745 Let's wordPlacementMarker2746 look wordPlacementMarker2747 at wordPlacementMarker2748 another wordPlacementMarker2749 example  
p730
aa(lp731
F1122.092
aF1123.296
aV wordPlacementMarker2750 fourteen wordPlacementMarker2751 periods wordPlacementMarker2752 of wordPlacementMarker2753 hypothetical wordPlacementMarker2754 History wordPlacementMarker2755  number three wordPlacementMarker2756 have wordPlacementMarker2757 been wordPlacementMarker2758 filled wordPlacementMarker2759 in  
p732
aa(lp733
F1127.516
aF1128.707
aV wordPlacementMarker2760 The wordPlacementMarker2761 hypothetical wordPlacementMarker2762 rule wordPlacementMarker2763 set wordPlacementMarker2764 will wordPlacementMarker2765 play wordPlacementMarker2766 Y wordPlacementMarker2767 after wordPlacementMarker2768 this wordPlacementMarker2769 history wordPlacementMarker2770 occurs  
p734
aa(lp735
F1132.601
aF1133.792
aV wordPlacementMarker2771 The wordPlacementMarker2772 starting wordPlacementMarker2773 rule wordPlacementMarker2774 set wordPlacementMarker2775 will wordPlacementMarker2776 play wordPlacementMarker2777 Y wordPlacementMarker2778 after wordPlacementMarker2779 this wordPlacementMarker2780 history wordPlacementMarker2781 occurs  
p736
aa(lp737
F1137.353
aF1143.536
aV wordPlacementMarker2782 You wordPlacementMarker2783 will wordPlacementMarker2784 be wordPlacementMarker2785 able wordPlacementMarker2786 to wordPlacementMarker2787 make wordPlacementMarker2788 changes wordPlacementMarker2789 to wordPlacementMarker2790 your wordPlacementMarker2791 Hypothetical wordPlacementMarker2792 Rules 
p738
aa(lp739
F1146.758
aF1146.943
aV  wordPlacementMarker2793 and wordPlacementMarker2794 your wordPlacementMarker2795 Starting wordPlacementMarker2796 Rules 
p740
aa(lp741
F1148.287
aF1148.495
aV  wordPlacementMarker2797 for wordPlacementMarker2798 the wordPlacementMarker2799 duration wordPlacementMarker2800 of wordPlacementMarker2801 the wordPlacementMarker2802 ten wordPlacementMarker2803 minutes  
p742
aa(lp743
F1150.404
aF1151.596
aV wordPlacementMarker2804 After wordPlacementMarker2805 the wordPlacementMarker2806 ten wordPlacementMarker2807 minutes wordPlacementMarker2808 are wordPlacementMarker2809 up 
p744
aa(lp745
F1153.089
aF1153.273
aV  wordPlacementMarker2810 rules wordPlacementMarker2811 that wordPlacementMarker2812 are wordPlacementMarker2813 on wordPlacementMarker2814 the wordPlacementMarker2815 Starting wordPlacementMarker2816 Rules wordPlacementMarker2817 side wordPlacementMarker2818 will wordPlacementMarker2819 be wordPlacementMarker2820 your wordPlacementMarker2821 starting wordPlacementMarker2822 rules wordPlacementMarker2823 for wordPlacementMarker2824 the wordPlacementMarker2825 experiment  
p746
aa(lp747
F1157.932
aF1159.633
aV wordPlacementMarker2826 Payoffs 
p748
aa(lp749
F1160.296
aF1160.996
aV wordPlacementMarker2827 At wordPlacementMarker2828 the wordPlacementMarker2829 end wordPlacementMarker2830 of wordPlacementMarker2831 the wordPlacementMarker2832 experiment 
p750
aa(lp751
F1162.715
aF1162.898
aV  wordPlacementMarker2833 you wordPlacementMarker2834 will wordPlacementMarker2835 be wordPlacementMarker2836 paid wordPlacementMarker2837 in wordPlacementMarker2838 cash  
p752
aa(lp753
F1164.325
aF1165.51
aV wordPlacementMarker2839 Your wordPlacementMarker2840 payoff wordPlacementMarker2841 at wordPlacementMarker2842 the wordPlacementMarker2843 end wordPlacementMarker2844 of wordPlacementMarker2845 the wordPlacementMarker2846 experiment wordPlacementMarker2847 will wordPlacementMarker2848 be wordPlacementMarker2849 the wordPlacementMarker2850 sum wordPlacementMarker2851 of wordPlacementMarker2852 the wordPlacementMarker2853 payoffs wordPlacementMarker2854 for wordPlacementMarker2855 each wordPlacementMarker2856 period  
p754
aa(lp755
F1169.909
aF1171.095
aV wordPlacementMarker2857 Reminder 
p756
aa(lp757
F1171.834
aF1172.01
aV  wordPlacementMarker2858 the wordPlacementMarker2859 exchange wordPlacementMarker2860 rate wordPlacementMarker2861 today wordPlacementMarker2862 is wordPlacementMarker2863 one thousand two hundred and fifty wordPlacementMarker2864 Francs wordPlacementMarker2865 equals wordPlacementMarker2866 one wordPlacementMarker2867 dollar  
p758
aa(lp759
F1176.557
aF1178.255
aV wordPlacementMarker2868 Practice wordPlacementMarker2869 Match 
p760
aa(lp761
F1179.183
aF1179.876
aV wordPlacementMarker2870 Next 
p762
aa(lp763
F1180.48
aF1180.673
aV  wordPlacementMarker2871 there wordPlacementMarker2872 will wordPlacementMarker2873 be wordPlacementMarker2874 a wordPlacementMarker2875 practice wordPlacementMarker2876 match wordPlacementMarker2877 to wordPlacementMarker2878 make wordPlacementMarker2879 sure wordPlacementMarker2880 that wordPlacementMarker2881 you wordPlacementMarker2882 are wordPlacementMarker2883 comfortable wordPlacementMarker2884 with wordPlacementMarker2885 the wordPlacementMarker2886 interface  
p764
aa(lp765
F1184.7
aF1185.884
aV wordPlacementMarker2887 It wordPlacementMarker2888 is wordPlacementMarker2889 important wordPlacementMarker2890 to wordPlacementMarker2891 note wordPlacementMarker2892 that wordPlacementMarker2893 in wordPlacementMarker2894 this wordPlacementMarker2895 practice wordPlacementMarker2896 match 
p766
aa(lp767
F1188.697
aF1188.89
aV  wordPlacementMarker2897 you wordPlacementMarker2898 will wordPlacementMarker2899 NOT wordPlacementMarker2900 be wordPlacementMarker2901 paid wordPlacementMarker2902 for wordPlacementMarker2903 the wordPlacementMarker2904 choices wordPlacementMarker2905 made  
p768
aa(lp769
F1191.009
aF1192.196
aV wordPlacementMarker2906 the wordPlacementMarker2907 payoffs wordPlacementMarker2908 are wordPlacementMarker2909 all wordPlacementMarker2910 listed wordPlacementMarker2911 as wordPlacementMarker2912 zero 
p770
aa(lp771
F1194.471
aF1194.661
aV  wordPlacementMarker2913 so wordPlacementMarker2914 that wordPlacementMarker2915 you wordPlacementMarker2916 can wordPlacementMarker2917 focus wordPlacementMarker2918 on wordPlacementMarker2919 getting wordPlacementMarker2920 comfortable wordPlacementMarker2921 with wordPlacementMarker2922 the wordPlacementMarker2923 interface 
p772
aa(lp773
F1197.852
aF1198.051
aV  wordPlacementMarker2924 rather wordPlacementMarker2925 than wordPlacementMarker2926 focusing wordPlacementMarker2927 on wordPlacementMarker2928 the wordPlacementMarker2929 payoffs  
p774
aa(lp775
F1200.068
aF1201.259
aV wordPlacementMarker2930 You wordPlacementMarker2931 are wordPlacementMarker2932 NOT wordPlacementMarker2933 paired wordPlacementMarker2934 with wordPlacementMarker2935 another wordPlacementMarker2936 participant  
p776
aa(lp777
F1203.493
aF1204.676
aV wordPlacementMarker2937 Your wordPlacementMarker2938 opponent wordPlacementMarker2939 for wordPlacementMarker2940 the wordPlacementMarker2941 practice wordPlacementMarker2942 match wordPlacementMarker2943 is wordPlacementMarker2944 a wordPlacementMarker2945 computer wordPlacementMarker2946 that wordPlacementMarker2947 is wordPlacementMarker2948 playing wordPlacementMarker2949 RANDOMLY  
p778
aa(lp779
F1210.127
aF1210.127
aS''
p780
aa.