(lp0
(lp1
F0.0
aF0.015
aVwordPlacementMarker0 Welcome wordPlacementMarker1 to wordPlacementMarker2 the wordPlacementMarker3 Vernon wordPlacementMarker4 Smith wordPlacementMarker5 Experimental wordPlacementMarker6 Economics wordPlacementMarker7 Laboratory  
p2
aa(lp3
F3.68
aF5.147
aV wordPlacementMarker8 Please wordPlacementMarker9 carefully wordPlacementMarker10 watch wordPlacementMarker11 these wordPlacementMarker12 video wordPlacementMarker13 instructions wordPlacementMarker14 and wordPlacementMarker15 follow wordPlacementMarker16 along wordPlacementMarker17 on wordPlacementMarker18 the wordPlacementMarker19 paper wordPlacementMarker20 copy wordPlacementMarker21 at wordPlacementMarker22 your wordPlacementMarker23 desk  
p4
aa(lp5
F10.177
aF12.365
aV wordPlacementMarker24 Experiment wordPlacementMarker25 Overview 
p6
aa(lp7
F13.785
aF14.972
aV wordPlacementMarker26 You wordPlacementMarker27 are wordPlacementMarker28 about wordPlacementMarker29 to wordPlacementMarker30 participate wordPlacementMarker31 in wordPlacementMarker32 an wordPlacementMarker33 experiment wordPlacementMarker34 in wordPlacementMarker35 the wordPlacementMarker36 economics wordPlacementMarker37 of wordPlacementMarker38 decision making  
p8
aa(lp9
F19.468
aF20.657
aV wordPlacementMarker39 If wordPlacementMarker40 you wordPlacementMarker41 listen wordPlacementMarker42 carefully 
p10
aa(lp11
F22.039
aF22.218
aV  wordPlacementMarker43 you wordPlacementMarker44 could wordPlacementMarker45 earn wordPlacementMarker46 a wordPlacementMarker47 large wordPlacementMarker48 amount wordPlacementMarker49 of wordPlacementMarker50 money 
p12
aa(lp13
F24.069
aF24.235
aV  wordPlacementMarker51 that wordPlacementMarker52 will wordPlacementMarker53 be wordPlacementMarker54 paid wordPlacementMarker55 to wordPlacementMarker56 you wordPlacementMarker57 in wordPlacementMarker58 cash 
p14
aa(lp15
F26.036
aF26.234
aV  wordPlacementMarker59 in wordPlacementMarker60 private 
p16
aa(lp17
F26.919
aF27.105
aV  wordPlacementMarker61 at wordPlacementMarker62 the wordPlacementMarker63 end wordPlacementMarker64 of wordPlacementMarker65 the wordPlacementMarker66 experiment  
p18
aa(lp19
F28.711
aF29.898
aV wordPlacementMarker67 It wordPlacementMarker68 is wordPlacementMarker69 important wordPlacementMarker70 that wordPlacementMarker71 you wordPlacementMarker72 remain wordPlacementMarker73 silent wordPlacementMarker74 and wordPlacementMarker75 do wordPlacementMarker76 not wordPlacementMarker77 look wordPlacementMarker78 at wordPlacementMarker79 other wordPlacementMarker80 people's wordPlacementMarker81 work  
p20
aa(lp21
F33.863
aF35.051
aV wordPlacementMarker82 If wordPlacementMarker83 you wordPlacementMarker84 have wordPlacementMarker85 any wordPlacementMarker86 questions 
p22
aa(lp23
F36.682
aF36.877
aV  wordPlacementMarker87 or wordPlacementMarker88 need wordPlacementMarker89 any wordPlacementMarker90 assistance wordPlacementMarker91 of wordPlacementMarker92 any wordPlacementMarker93 kind 
p24
aa(lp25
F39.044
aF39.229
aV  wordPlacementMarker94 please wordPlacementMarker95 raise wordPlacementMarker96 your wordPlacementMarker97 hand wordPlacementMarker98 and wordPlacementMarker99 an wordPlacementMarker100 experimenter wordPlacementMarker101 will wordPlacementMarker102 help wordPlacementMarker103 you wordPlacementMarker104 out  
p26
aa(lp27
F42.302
aF43.49
aV wordPlacementMarker105 During wordPlacementMarker106 the wordPlacementMarker107 experiment 
p28
aa(lp29
F44.792
aF44.999
aV  wordPlacementMarker108 do wordPlacementMarker109 not wordPlacementMarker110 talk 
p30
aa(lp31
F45.787
aF45.974
aV  wordPlacementMarker111 laugh wordPlacementMarker112 or wordPlacementMarker113 exclaim wordPlacementMarker114 out wordPlacementMarker115 loud wordPlacementMarker116 and wordPlacementMarker117 be wordPlacementMarker118 sure wordPlacementMarker119 to wordPlacementMarker120 keep wordPlacementMarker121 your wordPlacementMarker122 eyes wordPlacementMarker123 on wordPlacementMarker124 your wordPlacementMarker125 screen wordPlacementMarker126 only  
p32
aa(lp33
F49.894
aF51.096
aV wordPlacementMarker127 In wordPlacementMarker128 addition 
p34
aa(lp35
F51.871
aF52.081
aV  wordPlacementMarker129 please wordPlacementMarker130 turn wordPlacementMarker131 off wordPlacementMarker132 your wordPlacementMarker133 cell wordPlacementMarker134 phones 
p36
aa(lp37
F53.799
aF53.981
aV  wordPlacementMarker135 etc  
p38
aa(lp39
F54.612
aF55.784
aV wordPlacementMarker136 and wordPlacementMarker137 put wordPlacementMarker138 them wordPlacementMarker139 away wordPlacementMarker140 during wordPlacementMarker141 the wordPlacementMarker142 experiment  
p40
aa(lp41
F57.84
aF59.036
aV wordPlacementMarker143 Anybody wordPlacementMarker144 that wordPlacementMarker145 violates wordPlacementMarker146 these wordPlacementMarker147 rules wordPlacementMarker148 will wordPlacementMarker149 be wordPlacementMarker150 asked wordPlacementMarker151 to wordPlacementMarker152 leave wordPlacementMarker153 and wordPlacementMarker154 will wordPlacementMarker155 not wordPlacementMarker156 be wordPlacementMarker157 paid  
p42
aa(lp43
F62.872
aF64.057
aV wordPlacementMarker158 We wordPlacementMarker159 expect 
p44
aa(lp45
F64.643
aF64.826
aV  wordPlacementMarker160 and wordPlacementMarker161 appreciate wordPlacementMarker162 your wordPlacementMarker163 cooperation  
p46
aa(lp47
F66.773
aF68.456
aV wordPlacementMarker164 Agenda 
p48
aa(lp49
F69.063
aF69.749
aV wordPlacementMarker165 one  
p50
aa(lp51
F70.204
aF71.902
aV wordPlacementMarker166 We wordPlacementMarker167 will wordPlacementMarker168 first wordPlacementMarker169 go wordPlacementMarker170 over wordPlacementMarker171 the wordPlacementMarker172 instructions  
p52
aa(lp53
F74.17
aF75.384
aV wordPlacementMarker173 two  
p54
aa(lp55
F75.793
aF77.482
aV wordPlacementMarker174 Then wordPlacementMarker175 we wordPlacementMarker176 will wordPlacementMarker177 have wordPlacementMarker178 a wordPlacementMarker179 practice wordPlacementMarker180 match wordPlacementMarker181 to wordPlacementMarker182 learn wordPlacementMarker183 the wordPlacementMarker184 interface  
p56
aa(lp57
F80.365
aF81.569
aV wordPlacementMarker185 three  
p58
aa(lp59
F82.11
aF83.798
aV wordPlacementMarker186 Next 
p60
aa(lp61
F84.402
aF84.594
aV  wordPlacementMarker187 there wordPlacementMarker188 will wordPlacementMarker189 be wordPlacementMarker190 a wordPlacementMarker191 quiz wordPlacementMarker192 with wordPlacementMarker193 ten wordPlacementMarker194 questions wordPlacementMarker195 to wordPlacementMarker196 make wordPlacementMarker197 sure wordPlacementMarker198 everyone wordPlacementMarker199 understands wordPlacementMarker200 the wordPlacementMarker201 instructions  
p62
aa(lp63
F89.441
aF91.63
aV wordPlacementMarker202 All wordPlacementMarker203 ten wordPlacementMarker204 questions wordPlacementMarker205 will wordPlacementMarker206 refer wordPlacementMarker207 to wordPlacementMarker208 these wordPlacementMarker209 instructions wordPlacementMarker210 so wordPlacementMarker211 you wordPlacementMarker212 should wordPlacementMarker213 follow wordPlacementMarker214 them wordPlacementMarker215 carefully  
p64
aa(lp65
F96.137
aF97.335
aV wordPlacementMarker216 If wordPlacementMarker217 you wordPlacementMarker218 answer wordPlacementMarker219 all wordPlacementMarker220 questions wordPlacementMarker221 correctly wordPlacementMarker222 you wordPlacementMarker223 will wordPlacementMarker224 earn wordPlacementMarker225 ten wordPlacementMarker226 dollars  
p66
aa(lp67
F100.659
aF102.846
aV wordPlacementMarker227 If wordPlacementMarker228 you wordPlacementMarker229 answer wordPlacementMarker230 at wordPlacementMarker231 least wordPlacementMarker232 one wordPlacementMarker233 question wordPlacementMarker234 incorrectly wordPlacementMarker235 you wordPlacementMarker236 will wordPlacementMarker237 earn wordPlacementMarker238 nothing 
p68
aa(lp69
F106.25
aF106.406
aV  wordPlacementMarker239 at wordPlacementMarker240 which wordPlacementMarker241 point wordPlacementMarker242 you wordPlacementMarker243 will wordPlacementMarker244 not wordPlacementMarker245 need wordPlacementMarker246 to wordPlacementMarker247 answer wordPlacementMarker248 any wordPlacementMarker249 more wordPlacementMarker250 questions  
p70
aa(lp71
F109.596
aF111.789
aV wordPlacementMarker251 You wordPlacementMarker252 will wordPlacementMarker253 have wordPlacementMarker254 ten wordPlacementMarker255 minutes wordPlacementMarker256 to wordPlacementMarker257 answer wordPlacementMarker258 the wordPlacementMarker259 ten wordPlacementMarker260 questions  
p72
aa(lp73
F114.494
aF115.705
aV wordPlacementMarker261 four  
p74
aa(lp75
F116.265
aF117.948
aV wordPlacementMarker262 After wordPlacementMarker263 the wordPlacementMarker264 quiz 
p76
aa(lp77
F118.953
aF119.141
aV  wordPlacementMarker265 you wordPlacementMarker266 will wordPlacementMarker267 have wordPlacementMarker268 ten wordPlacementMarker269 minutes wordPlacementMarker270 to wordPlacementMarker271 prepare wordPlacementMarker272 for wordPlacementMarker273 the wordPlacementMarker274 experiment  
p78
aa(lp79
F121.908
aF123.106
aV wordPlacementMarker275 In wordPlacementMarker276 the wordPlacementMarker277 experiment wordPlacementMarker278 you wordPlacementMarker279 will wordPlacementMarker280 be wordPlacementMarker281 working wordPlacementMarker282 with wordPlacementMarker283 a wordPlacementMarker284 fictitious wordPlacementMarker285 currency wordPlacementMarker286 called wordPlacementMarker287 Francs  
p80
aa(lp81
F127.278
aF128.471
aV wordPlacementMarker288 You wordPlacementMarker289 will wordPlacementMarker290 be wordPlacementMarker291 paid wordPlacementMarker292 in wordPlacementMarker293 US wordPlacementMarker294 Dollars wordPlacementMarker295 at wordPlacementMarker296 the wordPlacementMarker297 end wordPlacementMarker298 of wordPlacementMarker299 the wordPlacementMarker300 experiment  
p82
aa(lp83
F131.787
aF132.977
aV wordPlacementMarker301 The wordPlacementMarker302 exchange wordPlacementMarker303 rate wordPlacementMarker304 today wordPlacementMarker305 is 
p84
aa(lp85
F134.577
aF135.281
aV wordPlacementMarker306 one thousand two hundred and fifty wordPlacementMarker307 Francs wordPlacementMarker308 equals wordPlacementMarker309 one wordPlacementMarker310 u s dollars  
p86
aa(lp87
F138.942
aF144.625
aV wordPlacementMarker311 Experiment wordPlacementMarker312 Details 
p88
aa(lp89
F146.121
aF146.809
aV wordPlacementMarker313 This wordPlacementMarker314 experiment wordPlacementMarker315 consists wordPlacementMarker316 of wordPlacementMarker317 ten wordPlacementMarker318 matches  
p90
aa(lp91
F149.263
aF150.476
aV wordPlacementMarker319 Prior wordPlacementMarker320 to wordPlacementMarker321 start wordPlacementMarker322 of wordPlacementMarker323 the wordPlacementMarker324 experiment 
p92
aa(lp93
F152.384
aF152.571
aV  wordPlacementMarker325 all wordPlacementMarker326 participants wordPlacementMarker327 may wordPlacementMarker328 be wordPlacementMarker329 split wordPlacementMarker330 into wordPlacementMarker331 two wordPlacementMarker332 groups  
p94
aa(lp95
F155.313
aF156.504
aV wordPlacementMarker333 The wordPlacementMarker334 groups wordPlacementMarker335 will wordPlacementMarker336 stay wordPlacementMarker337 fixed wordPlacementMarker338 and wordPlacementMarker339 you wordPlacementMarker340 will wordPlacementMarker341 know wordPlacementMarker342 number wordPlacementMarker343 of wordPlacementMarker344 participants wordPlacementMarker345 in wordPlacementMarker346 your wordPlacementMarker347 group wordPlacementMarker348 throughout wordPlacementMarker349 the wordPlacementMarker350 experiment  
p96
aa(lp97
F161.442
aF162.641
aV wordPlacementMarker351 At wordPlacementMarker352 the wordPlacementMarker353 beginning wordPlacementMarker354 of wordPlacementMarker355 each wordPlacementMarker356 match 
p98
aa(lp99
F164.344
aF164.535
aV  wordPlacementMarker357 you wordPlacementMarker358 will wordPlacementMarker359 be wordPlacementMarker360 paired wordPlacementMarker361 randomly wordPlacementMarker362 with wordPlacementMarker363 one wordPlacementMarker364 other wordPlacementMarker365 participant wordPlacementMarker366 from wordPlacementMarker367 your wordPlacementMarker368 group  
p100
aa(lp101
F167.993
aF169.19
aV wordPlacementMarker369 You wordPlacementMarker370 will wordPlacementMarker371 remain wordPlacementMarker372 matched wordPlacementMarker373 with wordPlacementMarker374 this wordPlacementMarker375 same wordPlacementMarker376 participant wordPlacementMarker377 until wordPlacementMarker378 the wordPlacementMarker379 end wordPlacementMarker380 of wordPlacementMarker381 the wordPlacementMarker382 match 
p102
aa(lp103
F172.669
aF172.873
aV  wordPlacementMarker383 but wordPlacementMarker384 then wordPlacementMarker385 will wordPlacementMarker386 be wordPlacementMarker387 paired wordPlacementMarker388 with wordPlacementMarker389 another wordPlacementMarker390 randomly wordPlacementMarker391 selected wordPlacementMarker392 participant wordPlacementMarker393 from wordPlacementMarker394 your wordPlacementMarker395 group wordPlacementMarker396 in wordPlacementMarker397 the wordPlacementMarker398 following wordPlacementMarker399 match  
p104
aa(lp105
F178.049
aF179.234
aV wordPlacementMarker400 Each wordPlacementMarker401 match wordPlacementMarker402 will wordPlacementMarker403 have wordPlacementMarker404 the wordPlacementMarker405 same wordPlacementMarker406 structure 
p106
aa(lp107
F181.252
aF181.443
aV  wordPlacementMarker407 but wordPlacementMarker408 may wordPlacementMarker409 contain wordPlacementMarker410 different wordPlacementMarker411 numbers wordPlacementMarker412 of wordPlacementMarker413 periods  
p108
aa(lp109
F183.847
aF185.046
aV wordPlacementMarker414 You wordPlacementMarker415 will wordPlacementMarker416 remain wordPlacementMarker417 anonymous wordPlacementMarker418 throughout wordPlacementMarker419 the wordPlacementMarker420 experiment  
p110
aa(lp111
F187.432
aF188.631
aV wordPlacementMarker421 You wordPlacementMarker422 will wordPlacementMarker423 not wordPlacementMarker424 know wordPlacementMarker425 the wordPlacementMarker426 identity wordPlacementMarker427 of wordPlacementMarker428 the wordPlacementMarker429 participant wordPlacementMarker430 that wordPlacementMarker431 you wordPlacementMarker432 are wordPlacementMarker433 paired wordPlacementMarker434 with 
p112
aa(lp113
F192.155
aF192.346
aV  wordPlacementMarker435 and wordPlacementMarker436 they wordPlacementMarker437 will wordPlacementMarker438 not wordPlacementMarker439 know wordPlacementMarker440 your wordPlacementMarker441 identity  
p114
aa(lp115
F194.0
aF195.192
aV wordPlacementMarker442 The wordPlacementMarker443 choices wordPlacementMarker444 made wordPlacementMarker445 by wordPlacementMarker446 you 
p116
aa(lp117
F196.685
aF196.867
aV  wordPlacementMarker447 and wordPlacementMarker448 the wordPlacementMarker449 participant wordPlacementMarker450 you wordPlacementMarker451 are wordPlacementMarker452 paired wordPlacementMarker453 with 
p118
aa(lp119
F198.702
aF198.892
aV  wordPlacementMarker454 have wordPlacementMarker455 no wordPlacementMarker456 effect wordPlacementMarker457 on wordPlacementMarker458 the wordPlacementMarker459 payoffs wordPlacementMarker460 of wordPlacementMarker461 participants wordPlacementMarker462 in wordPlacementMarker463 other wordPlacementMarker464 pairs 
p120
aa(lp121
F202.42
aF202.602
aV  wordPlacementMarker465 and wordPlacementMarker466 vice wordPlacementMarker467 versa  
p122
aa(lp123
F203.548
aF204.712
aV wordPlacementMarker468 Therefore 
p124
aa(lp125
F205.442
aF205.617
aV  wordPlacementMarker469 your wordPlacementMarker470 payoff wordPlacementMarker471 in wordPlacementMarker472 a wordPlacementMarker473 given wordPlacementMarker474 match wordPlacementMarker475 is wordPlacementMarker476 based wordPlacementMarker477 solely wordPlacementMarker478 on wordPlacementMarker479 the wordPlacementMarker480 choices wordPlacementMarker481 made wordPlacementMarker482 by wordPlacementMarker483 you wordPlacementMarker484 and wordPlacementMarker485 the wordPlacementMarker486 participant wordPlacementMarker487 that wordPlacementMarker488 you wordPlacementMarker489 are wordPlacementMarker490 paired wordPlacementMarker491 with  
p126
aa(lp127
F211.279
aF212.47
aV wordPlacementMarker492 Next 
p128
aa(lp129
F213.073
aF213.258
aV  wordPlacementMarker493 Let's wordPlacementMarker494 Look wordPlacementMarker495 at wordPlacementMarker496 the wordPlacementMarker497 experimental wordPlacementMarker498 Interface 
p130
aa(lp131
F215.474
aF218.164
aV wordPlacementMarker499 Specific wordPlacementMarker500 Instructions wordPlacementMarker501 for wordPlacementMarker502 Each wordPlacementMarker503 Period 
p132
aa(lp133
F220.482
aF221.168
aV wordPlacementMarker504 Your wordPlacementMarker505 payoff wordPlacementMarker506 in wordPlacementMarker507 each wordPlacementMarker508 period wordPlacementMarker509 will wordPlacementMarker510 depend wordPlacementMarker511 on wordPlacementMarker512 your wordPlacementMarker513 choice wordPlacementMarker514 and wordPlacementMarker515 the wordPlacementMarker516 choice wordPlacementMarker517 of wordPlacementMarker518 the wordPlacementMarker519 participant wordPlacementMarker520 that wordPlacementMarker521 you wordPlacementMarker522 are wordPlacementMarker523 paired wordPlacementMarker524 with  
p134
aa(lp135
F226.381
aF227.568
aV wordPlacementMarker525 You wordPlacementMarker526 will wordPlacementMarker527 choose wordPlacementMarker528 one wordPlacementMarker529 of wordPlacementMarker530 two wordPlacementMarker531 options 
p136
aa(lp137
F229.358
aF229.549
aV  wordPlacementMarker532 either wordPlacementMarker533 W wordPlacementMarker534 or wordPlacementMarker535 Y  
p138
aa(lp139
F230.988
aF231.972
aV wordPlacementMarker536 You wordPlacementMarker537 will wordPlacementMarker538 be wordPlacementMarker539 able wordPlacementMarker540 to wordPlacementMarker541 see wordPlacementMarker542 the wordPlacementMarker543 payoffs wordPlacementMarker544 for wordPlacementMarker545 each wordPlacementMarker546 combination wordPlacementMarker547 of wordPlacementMarker548 choices wordPlacementMarker549 for wordPlacementMarker550 you wordPlacementMarker551 and wordPlacementMarker552 the wordPlacementMarker553 participant wordPlacementMarker554 that wordPlacementMarker555 you wordPlacementMarker556 are wordPlacementMarker557 paired wordPlacementMarker558 with  
p140
aa(lp141
F237.703
aF238.907
aV wordPlacementMarker559 These wordPlacementMarker560 payoffs wordPlacementMarker561 will wordPlacementMarker562 remain wordPlacementMarker563 the wordPlacementMarker564 same wordPlacementMarker565 throughout wordPlacementMarker566 the wordPlacementMarker567 entire wordPlacementMarker568 experiment 
p142
aa(lp143
F242.382
aF243.068
aV wordPlacementMarker569  all wordPlacementMarker570 matches   
p144
aa(lp145
F243.925
aF245.621
aV wordPlacementMarker571 The wordPlacementMarker572 payoffs wordPlacementMarker573 will wordPlacementMarker574 be wordPlacementMarker575 displayed wordPlacementMarker576 in wordPlacementMarker577 a wordPlacementMarker578 table wordPlacementMarker579 like wordPlacementMarker580 this 
p146
aa(lp147
F248.087
aF248.776
aV wordPlacementMarker581 In wordPlacementMarker582 this wordPlacementMarker583 example wordPlacementMarker584 above 
p148
aa(lp149
F250.09
aF250.27
aV  wordPlacementMarker585 the wordPlacementMarker586 rows wordPlacementMarker587 are wordPlacementMarker588 the wordPlacementMarker589 following 
p150
aa(lp151
F251.611
aF252.299
aV wordPlacementMarker590 Row wordPlacementMarker591  number one wordPlacementMarker592 
p152
aa(lp153
F253.365
aF253.554
aV Your wordPlacementMarker593 choice 
p154
aa(lp155
F254.32
aF255.515
aV wordPlacementMarker594  either wordPlacementMarker595 W wordPlacementMarker596 or wordPlacementMarker597 Y wordPlacementMarker598 in wordPlacementMarker599 this wordPlacementMarker600 example  
p156
aa(lp157
F257.59
aF258.772
aV wordPlacementMarker601 Row wordPlacementMarker602  number two wordPlacementMarker603 
p158
aa(lp159
F259.856
aF260.042
aV Other's wordPlacementMarker604 choice 
p160
aa(lp161
F261.026
aF262.215
aV wordPlacementMarker605  either wordPlacementMarker606 W wordPlacementMarker607 or wordPlacementMarker608 Y wordPlacementMarker609 in wordPlacementMarker610 this wordPlacementMarker611 example  
p162
aa(lp163
F264.289
aF266.473
aV wordPlacementMarker612 Row wordPlacementMarker613  number three wordPlacementMarker614 
p164
aa(lp165
F267.524
aF267.718
aV Your wordPlacementMarker615 payoff  
p166
aa(lp167
F268.487
aF269.684
aV wordPlacementMarker616 Row wordPlacementMarker617  number four wordPlacementMarker618 
p168
aa(lp169
F270.762
aF270.951
aV Other's wordPlacementMarker619 payoff  
p170
aa(lp171
F271.94
aF273.138
aV wordPlacementMarker620 Row wordPlacementMarker621  number five wordPlacementMarker622 
p172
aa(lp173
F274.301
aF274.503
aV Total wordPlacementMarker623 number wordPlacementMarker624 of wordPlacementMarker625 times wordPlacementMarker626 that wordPlacementMarker627 that wordPlacementMarker628 combination wordPlacementMarker629 has wordPlacementMarker630 been wordPlacementMarker631 played wordPlacementMarker632 this wordPlacementMarker633 match  
p174
aa(lp175
F278.396
aF279.584
aV wordPlacementMarker634 Examples 
p176
aa(lp177
F280.408
aF281.088
aV wordPlacementMarker635 In wordPlacementMarker636 the wordPlacementMarker637 table wordPlacementMarker638 above 
p178
aa(lp179
F282.3
aF282.48
aV  wordPlacementMarker639 if wordPlacementMarker640 you wordPlacementMarker641 choose wordPlacementMarker642 W wordPlacementMarker643 and wordPlacementMarker644 the wordPlacementMarker645 participant wordPlacementMarker646 that wordPlacementMarker647 you wordPlacementMarker648 are wordPlacementMarker649 paired wordPlacementMarker650 with wordPlacementMarker651 chooses wordPlacementMarker652 Y 
p180
aa(lp181
F286.674
aF286.877
aV  wordPlacementMarker653 then wordPlacementMarker654 you wordPlacementMarker655 receive wordPlacementMarker656 a wordPlacementMarker657 payoff wordPlacementMarker658 of wordPlacementMarker659 three 
p182
aa(lp183
F288.819
aF289.011
aV  wordPlacementMarker660 and wordPlacementMarker661 the wordPlacementMarker662 participant wordPlacementMarker663 that wordPlacementMarker664 you wordPlacementMarker665 are wordPlacementMarker666 paired wordPlacementMarker667 with wordPlacementMarker668 receives wordPlacementMarker669 a wordPlacementMarker670 payoff wordPlacementMarker671 of wordPlacementMarker672 four  
p184
aa(lp185
F292.55
aF293.743
aV wordPlacementMarker673 This wordPlacementMarker674 combination wordPlacementMarker675 has wordPlacementMarker676 occurred wordPlacementMarker677 nineteen wordPlacementMarker678 times wordPlacementMarker679 so wordPlacementMarker680 far wordPlacementMarker681 this wordPlacementMarker682 match  
p186
aa(lp187
F297.396
aF298.586
aV wordPlacementMarker683 If wordPlacementMarker684 you wordPlacementMarker685 choose wordPlacementMarker686 W wordPlacementMarker687 and wordPlacementMarker688 the wordPlacementMarker689 participant wordPlacementMarker690 that wordPlacementMarker691 you wordPlacementMarker692 are wordPlacementMarker693 paired wordPlacementMarker694 with wordPlacementMarker695 chooses wordPlacementMarker696 W 
p188
aa(lp189
F302.886
aF303.084
aV  wordPlacementMarker697 then wordPlacementMarker698 you wordPlacementMarker699 receive wordPlacementMarker700 a wordPlacementMarker701 payoff wordPlacementMarker702 of wordPlacementMarker703 seven 
p190
aa(lp191
F305.146
aF305.332
aV  wordPlacementMarker704 and wordPlacementMarker705 the wordPlacementMarker706 participant wordPlacementMarker707 that wordPlacementMarker708 you wordPlacementMarker709 are wordPlacementMarker710 paired wordPlacementMarker711 with wordPlacementMarker712 receives wordPlacementMarker713 a wordPlacementMarker714 payoff wordPlacementMarker715 of wordPlacementMarker716 eight  
p192
aa(lp193
F308.716
aF309.901
aV wordPlacementMarker717 This wordPlacementMarker718 combination wordPlacementMarker719 has wordPlacementMarker720 occurred wordPlacementMarker721 six wordPlacementMarker722 times wordPlacementMarker723 so wordPlacementMarker724 far wordPlacementMarker725 this wordPlacementMarker726 match  
p194
aa(lp195
F313.296
aF314.485
aV wordPlacementMarker727 If wordPlacementMarker728 you wordPlacementMarker729 choose wordPlacementMarker730 Y wordPlacementMarker731 and wordPlacementMarker732 the wordPlacementMarker733 participant wordPlacementMarker734 you wordPlacementMarker735 are wordPlacementMarker736 paired wordPlacementMarker737 with wordPlacementMarker738 chooses wordPlacementMarker739 Y 
p196
aa(lp197
F318.251
aF318.456
aV  wordPlacementMarker740 then wordPlacementMarker741 you wordPlacementMarker742 receive wordPlacementMarker743 a wordPlacementMarker744 payoff wordPlacementMarker745 of wordPlacementMarker746 one 
p198
aa(lp199
F320.451
aF320.641
aV  wordPlacementMarker747 and wordPlacementMarker748 the wordPlacementMarker749 participant wordPlacementMarker750 that wordPlacementMarker751 you wordPlacementMarker752 are wordPlacementMarker753 paired wordPlacementMarker754 with wordPlacementMarker755 receives wordPlacementMarker756 a wordPlacementMarker757 payoff wordPlacementMarker758 of wordPlacementMarker759 two  
p200
aa(lp201
F324.133
aF325.32
aV wordPlacementMarker760 This wordPlacementMarker761 combination wordPlacementMarker762 has wordPlacementMarker763 occurred wordPlacementMarker764 six wordPlacementMarker765 times wordPlacementMarker766 so wordPlacementMarker767 far wordPlacementMarker768 this wordPlacementMarker769 match  
p202
aa(lp203
F328.716
aF330.418
aV wordPlacementMarker770 History 
p204
aa(lp205
F331.073
aF331.775
aV wordPlacementMarker771 As wordPlacementMarker772 the wordPlacementMarker773 match wordPlacementMarker774 progresses 
p206
aa(lp207
F333.179
aF333.37
aV  wordPlacementMarker775 you wordPlacementMarker776 will wordPlacementMarker777 see wordPlacementMarker778 the wordPlacementMarker779 history wordPlacementMarker780 of wordPlacementMarker781 play wordPlacementMarker782 across wordPlacementMarker783 the wordPlacementMarker784 top wordPlacementMarker785 of wordPlacementMarker786 the wordPlacementMarker787 screen 
p208
aa(lp209
F336.529
aF336.729
aV  wordPlacementMarker788 displayed wordPlacementMarker789 like wordPlacementMarker790 this 
p210
aa(lp211
F337.859
aF338.549
aV wordPlacementMarker791 This wordPlacementMarker792 history wordPlacementMarker793 displays wordPlacementMarker794 the wordPlacementMarker795 period 
p212
aa(lp213
F340.441
aF341.128
aV wordPlacementMarker796  labeled wordPlacementMarker797 Period  
p214
aa(lp215
F342.042
aF342.727
aV wordPlacementMarker798 your wordPlacementMarker799 choice wordPlacementMarker800 in wordPlacementMarker801 that wordPlacementMarker802 period 
p216
aa(lp217
F344.168
aF344.854
aV wordPlacementMarker803  labeled wordPlacementMarker804 My wordPlacementMarker805 Choice  
p218
aa(lp219
F346.079
aF346.777
aV wordPlacementMarker806 the wordPlacementMarker807 choice wordPlacementMarker808 of wordPlacementMarker809 the wordPlacementMarker810 participant wordPlacementMarker811 you wordPlacementMarker812 are wordPlacementMarker813 paired wordPlacementMarker814 with wordPlacementMarker815 in wordPlacementMarker816 that wordPlacementMarker817 period 
p220
aa(lp221
F349.637
aF350.319
aV wordPlacementMarker818  labeled wordPlacementMarker819 Other's wordPlacementMarker820 Choice  
p222
aa(lp223
F351.741
aF352.427
aV wordPlacementMarker821 and wordPlacementMarker822 the wordPlacementMarker823 payoff wordPlacementMarker824 for wordPlacementMarker825 that wordPlacementMarker826 period 
p224
aa(lp225
F354.013
aF354.696
aV wordPlacementMarker827  labeled wordPlacementMarker828 My wordPlacementMarker829 Payoff   
p226
aa(lp227
F355.935
aF357.654
aV wordPlacementMarker830 For wordPlacementMarker831 example 
p228
aa(lp229
F358.63
aF358.808
aV  wordPlacementMarker832 in wordPlacementMarker833 the wordPlacementMarker834 above wordPlacementMarker835 history 
p230
aa(lp231
F360.057
aF360.258
aV  wordPlacementMarker836 in wordPlacementMarker837 period wordPlacementMarker838 thirty nine 
p232
aa(lp233
F361.854
aF362.041
aV  wordPlacementMarker839 you wordPlacementMarker840 played wordPlacementMarker841 W 
p234
aa(lp235
F363.223
aF363.41
aV  wordPlacementMarker842 the wordPlacementMarker843 participant wordPlacementMarker844 you wordPlacementMarker845 are wordPlacementMarker846 paired wordPlacementMarker847 with wordPlacementMarker848 played wordPlacementMarker849 Y 
p236
aa(lp237
F365.854
aF366.032
aV  wordPlacementMarker850 and wordPlacementMarker851 you wordPlacementMarker852 received wordPlacementMarker853 a wordPlacementMarker854 payoff wordPlacementMarker855 of wordPlacementMarker856 three  
p238
aa(lp239
F367.931
aF369.822
aV wordPlacementMarker857 Rules 
p240
aa(lp241
F370.348
aF371.036
aV wordPlacementMarker858 Rather wordPlacementMarker859 than wordPlacementMarker860 directly wordPlacementMarker861 making wordPlacementMarker862 choices wordPlacementMarker863 of wordPlacementMarker864 W wordPlacementMarker865 or wordPlacementMarker866 Y 
p242
aa(lp243
F374.294
aF374.482
aV  wordPlacementMarker867 you wordPlacementMarker868 will wordPlacementMarker869 develop wordPlacementMarker870 a wordPlacementMarker871 set wordPlacementMarker872 of wordPlacementMarker873 rules wordPlacementMarker874 which wordPlacementMarker875 will wordPlacementMarker876 automatically wordPlacementMarker877 make wordPlacementMarker878 choices wordPlacementMarker879 for wordPlacementMarker880 you  
p244
aa(lp245
F378.42
aF379.604
aV wordPlacementMarker881 The wordPlacementMarker882 set wordPlacementMarker883 of wordPlacementMarker884 rules wordPlacementMarker885 will wordPlacementMarker886 appear wordPlacementMarker887 in wordPlacementMarker888 the wordPlacementMarker889 middle wordPlacementMarker890 of wordPlacementMarker891 the wordPlacementMarker892 screen  
p246
aa(lp247
F382.237
aF383.413
aV wordPlacementMarker893 You wordPlacementMarker894 will wordPlacementMarker895 be wordPlacementMarker896 able wordPlacementMarker897 to wordPlacementMarker898 construct wordPlacementMarker899 rules wordPlacementMarker900 using wordPlacementMarker901 the wordPlacementMarker902 rule wordPlacementMarker903 constructor wordPlacementMarker904 at wordPlacementMarker905 the wordPlacementMarker906 bottom wordPlacementMarker907 of wordPlacementMarker908 the wordPlacementMarker909 screen  
p248
aa(lp249
F387.861
aF389.043
aV wordPlacementMarker910 A wordPlacementMarker911 rule wordPlacementMarker912 consists wordPlacementMarker913 of wordPlacementMarker914 two wordPlacementMarker915 parts 
p250
aa(lp251
F390.73
aF391.419
aV wordPlacementMarker916 Input wordPlacementMarker917 Sequence wordPlacementMarker918 
p252
aa(lp253
F392.528
aF392.714
aV A wordPlacementMarker919 sequence wordPlacementMarker920 of wordPlacementMarker921 choices wordPlacementMarker922 made wordPlacementMarker923 by wordPlacementMarker924 you wordPlacementMarker925 and wordPlacementMarker926 the wordPlacementMarker927 participant wordPlacementMarker928 you wordPlacementMarker929 are wordPlacementMarker930 paired wordPlacementMarker931 with  
p254
aa(lp255
F396.571
aF397.759
aV wordPlacementMarker932 Output wordPlacementMarker933 
p256
aa(lp257
F398.386
aF398.573
aV A wordPlacementMarker934 choice wordPlacementMarker935 to wordPlacementMarker936 be wordPlacementMarker937 made wordPlacementMarker938 by wordPlacementMarker939 you wordPlacementMarker940 after wordPlacementMarker941 the wordPlacementMarker942 input wordPlacementMarker943 sequence wordPlacementMarker944 occurs  
p258
aa(lp259
F402.01
aF403.205
aV wordPlacementMarker945 Some wordPlacementMarker946 example wordPlacementMarker947 rules wordPlacementMarker948 are wordPlacementMarker949 displayed wordPlacementMarker950 below 
p260
aa(lp261
F405.361
aF406.061
aV wordPlacementMarker951 For wordPlacementMarker952 example 
p262
aa(lp263
F407.047
aF407.217
aV  wordPlacementMarker953 Rule wordPlacementMarker954  number two wordPlacementMarker955 has wordPlacementMarker956 an wordPlacementMarker957 input wordPlacementMarker958 sequence wordPlacementMarker959 of 
p264
aa(lp265
F409.707
aF410.391
aV wordPlacementMarker960  Y 
p266
aa(lp267
F410.901
aF411.058
aV Y  
p268
aa(lp269
F411.54
aF412.749
aV wordPlacementMarker961  W 
p270
aa(lp271
F413.4
aF413.614
aV W  
p272
aa(lp273
F414.159
aF415.352
aV wordPlacementMarker962  Y 
p274
aa(lp275
F415.843
aF416.035
aV W  
p276
aa(lp277
F416.58
aF417.261
aV wordPlacementMarker963 and wordPlacementMarker964 an wordPlacementMarker965 output wordPlacementMarker966 of wordPlacementMarker967 W  
p278
aa(lp279
F418.755
aF419.742
aV wordPlacementMarker968 This wordPlacementMarker969 means wordPlacementMarker970 that wordPlacementMarker971 if wordPlacementMarker972 you wordPlacementMarker973 have wordPlacementMarker974 played wordPlacementMarker975 Y 
p280
aa(lp281
F421.669
aF421.867
aV  wordPlacementMarker976 W 
p282
aa(lp283
F422.471
aF422.67
aV  wordPlacementMarker977 and wordPlacementMarker978 then wordPlacementMarker979 Y wordPlacementMarker980 in wordPlacementMarker981 the wordPlacementMarker982 last wordPlacementMarker983 three wordPlacementMarker984 periods 
p284
aa(lp285
F424.719
aF424.911
aV  wordPlacementMarker985 and wordPlacementMarker986 the wordPlacementMarker987 participant wordPlacementMarker988 that wordPlacementMarker989 you wordPlacementMarker990 are wordPlacementMarker991 paired wordPlacementMarker992 with wordPlacementMarker993 has wordPlacementMarker994 played wordPlacementMarker995 Y 
p286
aa(lp287
F427.903
aF428.106
aV  wordPlacementMarker996 W 
p288
aa(lp289
F428.651
aF428.845
aV  wordPlacementMarker997 and wordPlacementMarker998 then wordPlacementMarker999 W 
p290
aa(lp291
F429.893
aF430.067
aV  wordPlacementMarker1000 this wordPlacementMarker1001 rule wordPlacementMarker1002 will wordPlacementMarker1003 lead wordPlacementMarker1004 you wordPlacementMarker1005 to wordPlacementMarker1006 play wordPlacementMarker1007 W wordPlacementMarker1008 in wordPlacementMarker1009 the wordPlacementMarker1010 next wordPlacementMarker1011 period  
p292
aa(lp293
F433.236
aF434.418
aV wordPlacementMarker1012 As wordPlacementMarker1013 play wordPlacementMarker1014 progresses wordPlacementMarker1015 you wordPlacementMarker1016 will wordPlacementMarker1017 develop wordPlacementMarker1018 a wordPlacementMarker1019 set wordPlacementMarker1020 of wordPlacementMarker1021 rules wordPlacementMarker1022 that wordPlacementMarker1023 will wordPlacementMarker1024 be wordPlacementMarker1025 used wordPlacementMarker1026 to wordPlacementMarker1027 make wordPlacementMarker1028 your wordPlacementMarker1029 choices  
p294
aa(lp295
F439.053
aF440.271
aV wordPlacementMarker1030 Play wordPlacementMarker1031 will wordPlacementMarker1032 proceed wordPlacementMarker1033 as wordPlacementMarker1034 follows 
p296
aa(lp297
F442.083
aF442.771
aV wordPlacementMarker1035 Each wordPlacementMarker1036 period 
p298
aa(lp299
F443.488
aF443.665
aV  wordPlacementMarker1037 your wordPlacementMarker1038 set wordPlacementMarker1039 of wordPlacementMarker1040 rules wordPlacementMarker1041 will wordPlacementMarker1042 select wordPlacementMarker1043 the wordPlacementMarker1044 choice wordPlacementMarker1045 to wordPlacementMarker1046 be wordPlacementMarker1047 made wordPlacementMarker1048 next wordPlacementMarker1049 period  
p300
aa(lp301
F446.813
aF448.002
aV wordPlacementMarker1050 The wordPlacementMarker1051 rule wordPlacementMarker1052 that wordPlacementMarker1053 will wordPlacementMarker1054 be wordPlacementMarker1055 used wordPlacementMarker1056 to wordPlacementMarker1057 make wordPlacementMarker1058 the wordPlacementMarker1059 choice wordPlacementMarker1060 will wordPlacementMarker1061 be wordPlacementMarker1062 highlighted  
p302
aa(lp303
F450.812
aF452.001
aV wordPlacementMarker1063 The wordPlacementMarker1064 corresponding wordPlacementMarker1065 sequence wordPlacementMarker1066 in wordPlacementMarker1067 the wordPlacementMarker1068 history wordPlacementMarker1069 will wordPlacementMarker1070 be wordPlacementMarker1071 highlighted  
p304
aa(lp305
F455.118
aF456.318
aV wordPlacementMarker1072 A wordPlacementMarker1073 preview wordPlacementMarker1074 of wordPlacementMarker1075 the wordPlacementMarker1076 choice wordPlacementMarker1077 to wordPlacementMarker1078 be wordPlacementMarker1079 made wordPlacementMarker1080 next wordPlacementMarker1081 period wordPlacementMarker1082 will wordPlacementMarker1083 be wordPlacementMarker1084 shown wordPlacementMarker1085 as wordPlacementMarker1086 a wordPlacementMarker1087 lightly wordPlacementMarker1088 colored wordPlacementMarker1089 cell wordPlacementMarker1090 on wordPlacementMarker1091 the wordPlacementMarker1092 history wordPlacementMarker1093 of wordPlacementMarker1094 play  
p306
aa(lp307
F462.174
aF463.352
aV wordPlacementMarker1095 In wordPlacementMarker1096 order wordPlacementMarker1097 to wordPlacementMarker1098 move wordPlacementMarker1099 to wordPlacementMarker1100 the wordPlacementMarker1101 next wordPlacementMarker1102 period 
p308
aa(lp309
F465.231
aF465.418
aV  wordPlacementMarker1103 you wordPlacementMarker1104 have wordPlacementMarker1105 to wordPlacementMarker1106 confirm wordPlacementMarker1107 the wordPlacementMarker1108 choice wordPlacementMarker1109 by wordPlacementMarker1110 clicking wordPlacementMarker1111 on wordPlacementMarker1112 the wordPlacementMarker1113 corresponding wordPlacementMarker1114 history wordPlacementMarker1115 cell  
p310
aa(lp311
F469.455
aF470.659
aV wordPlacementMarker1116 Once wordPlacementMarker1117 you wordPlacementMarker1118 have wordPlacementMarker1119 confirmed wordPlacementMarker1120 your wordPlacementMarker1121 choice 
p312
aa(lp313
F472.577
aF472.762
aV  wordPlacementMarker1122 the wordPlacementMarker1123 light wordPlacementMarker1124 color wordPlacementMarker1125 will wordPlacementMarker1126 turn wordPlacementMarker1127 to wordPlacementMarker1128 a wordPlacementMarker1129 regular wordPlacementMarker1130 color 
p314
aa(lp315
F475.283
aF475.463
aV  wordPlacementMarker1131 and wordPlacementMarker1132 you wordPlacementMarker1133 may wordPlacementMarker1134 need wordPlacementMarker1135 to wordPlacementMarker1136 wait wordPlacementMarker1137 for wordPlacementMarker1138 the wordPlacementMarker1139 participant wordPlacementMarker1140 that wordPlacementMarker1141 you wordPlacementMarker1142 are wordPlacementMarker1143 paired wordPlacementMarker1144 with wordPlacementMarker1145 to wordPlacementMarker1146 make wordPlacementMarker1147 their wordPlacementMarker1148 choice  
p316
aa(lp317
F479.501
aF485.692
aV wordPlacementMarker1149 There wordPlacementMarker1150 are wordPlacementMarker1151 several wordPlacementMarker1152 ways wordPlacementMarker1153 that wordPlacementMarker1154 you wordPlacementMarker1155 can wordPlacementMarker1156 modify wordPlacementMarker1157 your wordPlacementMarker1158 rules wordPlacementMarker1159 during wordPlacementMarker1160 the wordPlacementMarker1161 experiment  
p318
aa(lp319
F489.594
aF490.782
aV wordPlacementMarker1162 one  
p320
aa(lp321
F491.237
aF492.949
aV wordPlacementMarker1163 First 
p322
aa(lp323
F493.49
aF493.672
aV  wordPlacementMarker1164 you wordPlacementMarker1165 can wordPlacementMarker1166 use wordPlacementMarker1167 the wordPlacementMarker1168 rule wordPlacementMarker1169 constructor wordPlacementMarker1170 in wordPlacementMarker1171 the wordPlacementMarker1172 bottom wordPlacementMarker1173 center wordPlacementMarker1174 of wordPlacementMarker1175 the wordPlacementMarker1176 screen  
p324
aa(lp325
F497.18
aF498.385
aV wordPlacementMarker1177 Press wordPlacementMarker1178 the wordPlacementMarker1179 plus wordPlacementMarker1180 button wordPlacementMarker1181 to wordPlacementMarker1182 add wordPlacementMarker1183 more wordPlacementMarker1184 columns 
p326
aa(lp327
F500.729
aF500.912
aV  wordPlacementMarker1185 or wordPlacementMarker1186 one wordPlacementMarker1187 of wordPlacementMarker1188 the wordPlacementMarker1189 minus wordPlacementMarker1190 buttons wordPlacementMarker1191 to wordPlacementMarker1192 subtract wordPlacementMarker1193 columns  
p328
aa(lp329
F503.731
aF504.937
aV wordPlacementMarker1194 Click wordPlacementMarker1195 on wordPlacementMarker1196 the wordPlacementMarker1197 question wordPlacementMarker1198 marks wordPlacementMarker1199 to wordPlacementMarker1200 fill wordPlacementMarker1201 in wordPlacementMarker1202 the wordPlacementMarker1203 boxes  
p330
aa(lp331
F507.565
aF508.78
aV wordPlacementMarker1204 When wordPlacementMarker1205 you wordPlacementMarker1206 click wordPlacementMarker1207 on wordPlacementMarker1208 a wordPlacementMarker1209 question wordPlacementMarker1210 mark 
p332
aa(lp333
F510.644
aF510.834
aV  wordPlacementMarker1211 either wordPlacementMarker1212 a wordPlacementMarker1213 W wordPlacementMarker1214 or wordPlacementMarker1215 a wordPlacementMarker1216 Y wordPlacementMarker1217 will wordPlacementMarker1218 appear  
p334
aa(lp335
F512.941
aF514.123
aV wordPlacementMarker1219 If wordPlacementMarker1220 you wordPlacementMarker1221 click wordPlacementMarker1222 on wordPlacementMarker1223 a wordPlacementMarker1224 W 
p336
aa(lp337
F515.616
aF515.807
aV  wordPlacementMarker1225 it wordPlacementMarker1226 will wordPlacementMarker1227 switch wordPlacementMarker1228 to wordPlacementMarker1229 a wordPlacementMarker1230 Y 
p338
aa(lp339
F517.227
aF517.416
aV  wordPlacementMarker1231 and wordPlacementMarker1232 if wordPlacementMarker1233 you wordPlacementMarker1234 click wordPlacementMarker1235 on wordPlacementMarker1236 a wordPlacementMarker1237 Y 
p340
aa(lp341
F518.887
aF519.077
aV  wordPlacementMarker1238 it wordPlacementMarker1239 will wordPlacementMarker1240 switch wordPlacementMarker1241 to wordPlacementMarker1242 a wordPlacementMarker1243 W  
p342
aa(lp343
F520.719
aF521.69
aV wordPlacementMarker1244 Once wordPlacementMarker1245 you wordPlacementMarker1246 have wordPlacementMarker1247 completely wordPlacementMarker1248 filled wordPlacementMarker1249 in wordPlacementMarker1250 the wordPlacementMarker1251 rule 
p344
aa(lp345
F523.746
aF524.427
aV wordPlacementMarker1252  leaving wordPlacementMarker1253 no wordPlacementMarker1254 question wordPlacementMarker1255 marks  
p346
aa(lp347
F526.064
aF526.761
aV wordPlacementMarker1256 the wordPlacementMarker1257 add wordPlacementMarker1258 rule wordPlacementMarker1259 button wordPlacementMarker1260 will wordPlacementMarker1261 appear 
p348
aa(lp349
F528.71
aF528.897
aV  wordPlacementMarker1262 and wordPlacementMarker1263 the wordPlacementMarker1264 rule wordPlacementMarker1265 can wordPlacementMarker1266 be wordPlacementMarker1267 added wordPlacementMarker1268 to wordPlacementMarker1269 your wordPlacementMarker1270 set  
p350
aa(lp351
F530.644
aF531.86
aV wordPlacementMarker1271 two  
p352
aa(lp353
F532.272
aF533.961
aV wordPlacementMarker1272 Second 
p354
aa(lp355
F534.561
aF534.743
aV  wordPlacementMarker1273 if wordPlacementMarker1274 you wordPlacementMarker1275 look wordPlacementMarker1276 at wordPlacementMarker1277 a wordPlacementMarker1278 rule wordPlacementMarker1279 in wordPlacementMarker1280 the wordPlacementMarker1281 set 
p356
aa(lp357
F536.403
aF536.592
aV  wordPlacementMarker1282 you wordPlacementMarker1283 will wordPlacementMarker1284 notice wordPlacementMarker1285 a wordPlacementMarker1286 green wordPlacementMarker1287 copy wordPlacementMarker1288 button 
p358
aa(lp359
F538.445
aF538.625
aV  wordPlacementMarker1289 and wordPlacementMarker1290 a wordPlacementMarker1291 red wordPlacementMarker1292 delete wordPlacementMarker1293 button  
p360
aa(lp361
F539.817
aF541.01
aV wordPlacementMarker1294 If wordPlacementMarker1295 you wordPlacementMarker1296 press wordPlacementMarker1297 the wordPlacementMarker1298 green wordPlacementMarker1299 copy wordPlacementMarker1300 button 
p362
aa(lp363
F542.873
aF543.054
aV  wordPlacementMarker1301 it wordPlacementMarker1302 will wordPlacementMarker1303 copy wordPlacementMarker1304 the wordPlacementMarker1305 rule wordPlacementMarker1306 down wordPlacementMarker1307 to wordPlacementMarker1308 the wordPlacementMarker1309 constructor 
p364
aa(lp365
F545.404
aF545.585
aV  wordPlacementMarker1310 and wordPlacementMarker1311 you wordPlacementMarker1312 will wordPlacementMarker1313 be wordPlacementMarker1314 able wordPlacementMarker1315 to wordPlacementMarker1316 create wordPlacementMarker1317 a wordPlacementMarker1318 similar wordPlacementMarker1319 rule  
p366
aa(lp367
F547.919
aF551.116
aV wordPlacementMarker1320 If wordPlacementMarker1321 you wordPlacementMarker1322 press wordPlacementMarker1323 the wordPlacementMarker1324 red wordPlacementMarker1325 delete wordPlacementMarker1326 button 
p368
aa(lp369
F552.829
aF553.011
aV  wordPlacementMarker1327 it wordPlacementMarker1328 will wordPlacementMarker1329 delete wordPlacementMarker1330 the wordPlacementMarker1331 rule wordPlacementMarker1332 from wordPlacementMarker1333 the wordPlacementMarker1334 set  
p370
aa(lp371
F554.948
aF558.153
aV wordPlacementMarker1335 three  
p372
aa(lp373
F558.693
aF560.384
aV wordPlacementMarker1336 Since wordPlacementMarker1337 your wordPlacementMarker1338 rule wordPlacementMarker1339 set wordPlacementMarker1340 needs wordPlacementMarker1341 to wordPlacementMarker1342 make wordPlacementMarker1343 a wordPlacementMarker1344 single wordPlacementMarker1345 choice wordPlacementMarker1346 each wordPlacementMarker1347 period 
p374
aa(lp375
F563.715
aF563.909
aV  wordPlacementMarker1348 it wordPlacementMarker1349 is wordPlacementMarker1350 not wordPlacementMarker1351 possible wordPlacementMarker1352 to wordPlacementMarker1353 have wordPlacementMarker1354 two wordPlacementMarker1355 rules wordPlacementMarker1356 with wordPlacementMarker1357 the wordPlacementMarker1358 same wordPlacementMarker1359 input wordPlacementMarker1360 sequence 
p376
aa(lp377
F567.745
aF567.95
aV  wordPlacementMarker1361 but wordPlacementMarker1362 with wordPlacementMarker1363 different wordPlacementMarker1364 outputs  
p378
aa(lp379
F569.251
aF570.449
aV wordPlacementMarker1365 If wordPlacementMarker1366 you wordPlacementMarker1367 create wordPlacementMarker1368 a wordPlacementMarker1369 rule wordPlacementMarker1370 that wordPlacementMarker1371 has wordPlacementMarker1372 the wordPlacementMarker1373 same wordPlacementMarker1374 input wordPlacementMarker1375 sequence wordPlacementMarker1376 but wordPlacementMarker1377 a wordPlacementMarker1378 different wordPlacementMarker1379 output 
p380
aa(lp381
F574.397
aF574.583
aV  wordPlacementMarker1380 you wordPlacementMarker1381 will wordPlacementMarker1382 get wordPlacementMarker1383 an wordPlacementMarker1384 error wordPlacementMarker1385 that wordPlacementMarker1386 says wordPlacementMarker1387 Conflicting wordPlacementMarker1388 rule wordPlacementMarker1389 in wordPlacementMarker1390 set 
p382
aa(lp383
F577.451
aF577.648
aV  wordPlacementMarker1391 and wordPlacementMarker1392 a wordPlacementMarker1393 button wordPlacementMarker1394 that wordPlacementMarker1395 says wordPlacementMarker1396 Switch wordPlacementMarker1397 Rule wordPlacementMarker1398 will wordPlacementMarker1399 appear  
p384
aa(lp385
F580.072
aF581.259
aV wordPlacementMarker1400 If wordPlacementMarker1401 you wordPlacementMarker1402 press wordPlacementMarker1403 this wordPlacementMarker1404 button 
p386
aa(lp387
F582.571
aF582.752
aV  wordPlacementMarker1405 it wordPlacementMarker1406 will wordPlacementMarker1407 delete wordPlacementMarker1408 the wordPlacementMarker1409 conflicting wordPlacementMarker1410 rule wordPlacementMarker1411 from wordPlacementMarker1412 the wordPlacementMarker1413 rule wordPlacementMarker1414 set 
p388
aa(lp389
F585.305
aF585.494
aV  wordPlacementMarker1415 and wordPlacementMarker1416 add wordPlacementMarker1417 the wordPlacementMarker1418 rule wordPlacementMarker1419 from wordPlacementMarker1420 the wordPlacementMarker1421 constructor  
p390
aa(lp391
F587.463
aF590.655
aV wordPlacementMarker1422 The wordPlacementMarker1423 length wordPlacementMarker1424 of wordPlacementMarker1425 the wordPlacementMarker1426 rule wordPlacementMarker1427 is wordPlacementMarker1428 measured wordPlacementMarker1429 by wordPlacementMarker1430 the wordPlacementMarker1431 length wordPlacementMarker1432 of wordPlacementMarker1433 the wordPlacementMarker1434 input wordPlacementMarker1435 sequence  
p392
aa(lp393
F594.046
aF595.238
aV wordPlacementMarker1436 So wordPlacementMarker1437 rule wordPlacementMarker1438  number two 
p394
aa(lp395
F596.705
aF596.899
aV  wordPlacementMarker1439 and wordPlacementMarker1440 rule wordPlacementMarker1441  number three wordPlacementMarker1442 have wordPlacementMarker1443 a wordPlacementMarker1444 length wordPlacementMarker1445 of wordPlacementMarker1446 three 
p396
aa(lp397
F599.274
aF599.465
aV  wordPlacementMarker1447 and wordPlacementMarker1448 rule wordPlacementMarker1449  number four wordPlacementMarker1450 has wordPlacementMarker1451 a wordPlacementMarker1452 length wordPlacementMarker1453 of wordPlacementMarker1454 two  
p398
aa(lp399
F601.735
aF602.909
aV wordPlacementMarker1455 A wordPlacementMarker1456 rule wordPlacementMarker1457 of wordPlacementMarker1458 length wordPlacementMarker1459 n wordPlacementMarker1460 is wordPlacementMarker1461 said wordPlacementMarker1462 to wordPlacementMarker1463 fit wordPlacementMarker1464 the wordPlacementMarker1465 history wordPlacementMarker1466 if wordPlacementMarker1467 the wordPlacementMarker1468 input wordPlacementMarker1469 sequence wordPlacementMarker1470 matches wordPlacementMarker1471 the wordPlacementMarker1472 last wordPlacementMarker1473 n wordPlacementMarker1474 periods wordPlacementMarker1475 of wordPlacementMarker1476 the wordPlacementMarker1477 history  
p400
aa(lp401
F608.951
aF610.157
aV wordPlacementMarker1478 For wordPlacementMarker1479 example 
p402
aa(lp403
F611.152
aF611.316
aV  wordPlacementMarker1480 since wordPlacementMarker1481 the wordPlacementMarker1482 last wordPlacementMarker1483 three wordPlacementMarker1484 periods wordPlacementMarker1485 of wordPlacementMarker1486 play wordPlacementMarker1487 in wordPlacementMarker1488 the wordPlacementMarker1489 above wordPlacementMarker1490 history 
p404
aa(lp405
F614.353
aF615.06
aV wordPlacementMarker1491  periods wordPlacementMarker1492 forty two wordPlacementMarker1493 through wordPlacementMarker1494 forty four  
p406
aa(lp407
F617.176
aF617.88
aV wordPlacementMarker1495 have wordPlacementMarker1496 been 
p408
aa(lp409
F618.536
aF619.237
aV wordPlacementMarker1497  Y 
p410
aa(lp411
F619.737
aF619.904
aV  wordPlacementMarker1498 Y  
p412
aa(lp413
F620.385
aF621.595
aV wordPlacementMarker1499  W 
p414
aa(lp415
F622.244
aF622.46
aV  wordPlacementMarker1500 W  
p416
aa(lp417
F623.005
aF623.695
aV wordPlacementMarker1501 and 
p418
aa(lp419
F624.151
aF624.845
aV wordPlacementMarker1502  Y 
p420
aa(lp421
F625.338
aF625.529
aV  wordPlacementMarker1503 W  
p422
aa(lp423
F626.075
aF626.757
aV wordPlacementMarker1504 and wordPlacementMarker1505 that wordPlacementMarker1506 sequence wordPlacementMarker1507 is wordPlacementMarker1508 also wordPlacementMarker1509 the wordPlacementMarker1510 input wordPlacementMarker1511 for wordPlacementMarker1512 rule wordPlacementMarker1513  number two 
p424
aa(lp425
F629.962
aF631.159
aV wordPlacementMarker1514 then wordPlacementMarker1515 rule wordPlacementMarker1516  number two wordPlacementMarker1517 is wordPlacementMarker1518 said wordPlacementMarker1519 to wordPlacementMarker1520 fit wordPlacementMarker1521 the wordPlacementMarker1522 history  
p426
aa(lp427
F633.639
aF634.838
aV wordPlacementMarker1523 Similarly 
p428
aa(lp429
F635.661
aF635.86
aV  wordPlacementMarker1524 given wordPlacementMarker1525 the wordPlacementMarker1526 above wordPlacementMarker1527 history 
p430
aa(lp431
F637.248
aF637.437
aV  wordPlacementMarker1528 we wordPlacementMarker1529 can wordPlacementMarker1530 see wordPlacementMarker1531 that wordPlacementMarker1532 rule wordPlacementMarker1533  number four wordPlacementMarker1534 fits wordPlacementMarker1535 the wordPlacementMarker1536 history 
p432
aa(lp433
F640.262
aF641.449
aV wordPlacementMarker1537 but wordPlacementMarker1538 rule wordPlacementMarker1539  number three wordPlacementMarker1540 does wordPlacementMarker1541 not wordPlacementMarker1542 fit wordPlacementMarker1543 the wordPlacementMarker1544 history  
p434
aa(lp435
F644.019
aF645.206
aV wordPlacementMarker1545 If wordPlacementMarker1546 more wordPlacementMarker1547 than wordPlacementMarker1548 one wordPlacementMarker1549 rule wordPlacementMarker1550 fits wordPlacementMarker1551 the wordPlacementMarker1552 history 
p436
aa(lp437
F647.444
aF647.635
aV  wordPlacementMarker1553 then wordPlacementMarker1554 the wordPlacementMarker1555 rule wordPlacementMarker1556 with wordPlacementMarker1557 the wordPlacementMarker1558 longer wordPlacementMarker1559 length wordPlacementMarker1560 will wordPlacementMarker1561 determine wordPlacementMarker1562 the wordPlacementMarker1563 choice  
p438
aa(lp439
F650.684
aF651.892
aV wordPlacementMarker1564 For wordPlacementMarker1565 example 
p440
aa(lp441
F652.872
aF653.062
aV  wordPlacementMarker1566 given wordPlacementMarker1567 the wordPlacementMarker1568 above wordPlacementMarker1569 history wordPlacementMarker1570 since wordPlacementMarker1571 both wordPlacementMarker1572 rule wordPlacementMarker1573  number two 
p442
aa(lp443
F655.924
aF656.118
aV  wordPlacementMarker1574 and wordPlacementMarker1575 rule wordPlacementMarker1576  number four wordPlacementMarker1577 fit wordPlacementMarker1578 the wordPlacementMarker1579 history 
p444
aa(lp445
F658.233
aF658.408
aV  wordPlacementMarker1580 rule wordPlacementMarker1581  number two wordPlacementMarker1582 will wordPlacementMarker1583 be wordPlacementMarker1584 used wordPlacementMarker1585 to wordPlacementMarker1586 make wordPlacementMarker1587 your wordPlacementMarker1588 choice 
p446
aa(lp447
F660.904
aF661.093
aV  wordPlacementMarker1589 since wordPlacementMarker1590 it wordPlacementMarker1591 is wordPlacementMarker1592 longer  
p448
aa(lp449
F662.352
aF663.54
aV wordPlacementMarker1593 Therefore 
p450
aa(lp451
F664.275
aF664.459
aV  wordPlacementMarker1594 given wordPlacementMarker1595 the wordPlacementMarker1596 history 
p452
aa(lp453
F665.524
aF665.7
aV  wordPlacementMarker1597 and wordPlacementMarker1598 the wordPlacementMarker1599 rule wordPlacementMarker1600 set 
p454
aa(lp455
F666.646
aF666.835
aV  wordPlacementMarker1601 your wordPlacementMarker1602 choice wordPlacementMarker1603 next wordPlacementMarker1604 period wordPlacementMarker1605 will wordPlacementMarker1606 be wordPlacementMarker1607 W 
p456
aa(lp457
F669.303
aF669.49
aV  wordPlacementMarker1608 as wordPlacementMarker1609 prescribed wordPlacementMarker1610 by wordPlacementMarker1611 rule wordPlacementMarker1612  number two  
p458
aa(lp459
F671.523
aF674.706
aV wordPlacementMarker1613 If wordPlacementMarker1614 no wordPlacementMarker1615 rules wordPlacementMarker1616 fit wordPlacementMarker1617 the wordPlacementMarker1618 history 
p460
aa(lp461
F676.448
aF676.628
aV  wordPlacementMarker1619 then wordPlacementMarker1620 your wordPlacementMarker1621 Default wordPlacementMarker1622 Rule wordPlacementMarker1623 will wordPlacementMarker1624 be wordPlacementMarker1625 selected  
p462
aa(lp463
F678.808
aF679.998
aV wordPlacementMarker1626 The wordPlacementMarker1627 default wordPlacementMarker1628 rule wordPlacementMarker1629 will wordPlacementMarker1630 only wordPlacementMarker1631 be wordPlacementMarker1632 used wordPlacementMarker1633 when wordPlacementMarker1634 no wordPlacementMarker1635 rules wordPlacementMarker1636 fit wordPlacementMarker1637 the wordPlacementMarker1638 history  
p464
aa(lp465
F683.535
aF684.74
aV wordPlacementMarker1639 To wordPlacementMarker1640 select wordPlacementMarker1641 your wordPlacementMarker1642 default wordPlacementMarker1643 rule wordPlacementMarker1644 select wordPlacementMarker1645 either wordPlacementMarker1646 W 
p466
aa(lp467
F687.401
aF687.585
aV  wordPlacementMarker1647 or wordPlacementMarker1648 Y 
p468
aa(lp469
F688.235
aF688.383
aV  wordPlacementMarker1649 in wordPlacementMarker1650 the wordPlacementMarker1651 bottom wordPlacementMarker1652 left wordPlacementMarker1653 of wordPlacementMarker1654 your wordPlacementMarker1655 screen  
p470
aa(lp471
F690.109
aF691.302
aV wordPlacementMarker1656 Additionally 
p472
aa(lp473
F692.176
aF692.352
aV  wordPlacementMarker1657 you wordPlacementMarker1658 have wordPlacementMarker1659 to wordPlacementMarker1660 select wordPlacementMarker1661 the wordPlacementMarker1662 First wordPlacementMarker1663 Period wordPlacementMarker1664 rule  
p474
aa(lp475
F694.355
aF695.539
aV wordPlacementMarker1665 The wordPlacementMarker1666 first wordPlacementMarker1667 period wordPlacementMarker1668 rule wordPlacementMarker1669 will wordPlacementMarker1670 only wordPlacementMarker1671 be wordPlacementMarker1672 used wordPlacementMarker1673 in wordPlacementMarker1674 the wordPlacementMarker1675 first wordPlacementMarker1676 period wordPlacementMarker1677 of wordPlacementMarker1678 the wordPlacementMarker1679 match  
p476
aa(lp477
F699.449
aF700.657
aV wordPlacementMarker1680 To wordPlacementMarker1681 select wordPlacementMarker1682 your wordPlacementMarker1683 first wordPlacementMarker1684 period wordPlacementMarker1685 rule wordPlacementMarker1686 select wordPlacementMarker1687 either wordPlacementMarker1688 W 
p478
aa(lp479
F703.682
aF703.865
aV  wordPlacementMarker1689 or wordPlacementMarker1690 Y 
p480
aa(lp481
F704.501
aF704.663
aV  wordPlacementMarker1691 in wordPlacementMarker1692 the wordPlacementMarker1693 bottom wordPlacementMarker1694 left wordPlacementMarker1695 of wordPlacementMarker1696 your wordPlacementMarker1697 screen  
p482
aa(lp483
F706.388
aF708.083
aV wordPlacementMarker1698 Additional wordPlacementMarker1699 Examples 
p484
aa(lp485
F709.472
aF710.161
aV wordPlacementMarker1700 In wordPlacementMarker1701 the wordPlacementMarker1702 example wordPlacementMarker1703 above 
p486
aa(lp487
F711.487
aF711.669
aV  wordPlacementMarker1704 Rule wordPlacementMarker1705  number four 
p488
aa(lp489
F712.854
aF713.053
aV  wordPlacementMarker1706 and wordPlacementMarker1707 Rule wordPlacementMarker1708  number nine 
p490
aa(lp491
F714.376
aF714.582
aV  wordPlacementMarker1709 both wordPlacementMarker1710 fit wordPlacementMarker1711 the wordPlacementMarker1712 history  
p492
aa(lp493
F715.866
aF717.072
aV wordPlacementMarker1713 However 
p494
aa(lp495
F717.735
aF717.906
aV  wordPlacementMarker1714 rule wordPlacementMarker1715  number nine wordPlacementMarker1716 will wordPlacementMarker1717 be wordPlacementMarker1718 selected wordPlacementMarker1719 because wordPlacementMarker1720 it wordPlacementMarker1721 is wordPlacementMarker1722 longer  
p496
aa(lp497
F720.902
aF722.092
aV wordPlacementMarker1723 Therefore 
p498
aa(lp499
F722.824
aF723.002
aV  wordPlacementMarker1724 W wordPlacementMarker1725 will wordPlacementMarker1726 be wordPlacementMarker1727 played wordPlacementMarker1728 in wordPlacementMarker1729 the wordPlacementMarker1730 next wordPlacementMarker1731 period 
p500
aa(lp501
F725.255
aF725.441
aV  wordPlacementMarker1732 as wordPlacementMarker1733 prescribed wordPlacementMarker1734 by wordPlacementMarker1735 rule wordPlacementMarker1736  number nine  
p502
aa(lp503
F727.556
aF728.757
aV wordPlacementMarker1737 For wordPlacementMarker1738 the wordPlacementMarker1739 example wordPlacementMarker1740 above 
p504
aa(lp505
F730.143
aF730.34
aV  wordPlacementMarker1741 how wordPlacementMarker1742 can wordPlacementMarker1743 we wordPlacementMarker1744 change wordPlacementMarker1745 the wordPlacementMarker1746 rule wordPlacementMarker1747 set wordPlacementMarker1748 to wordPlacementMarker1749 ensure wordPlacementMarker1750 that wordPlacementMarker1751 Y wordPlacementMarker1752 is wordPlacementMarker1753 played wordPlacementMarker1754 next wordPlacementMarker1755 period  
p506
aa(lp507
F734.34
aF735.521
aV wordPlacementMarker1756 There wordPlacementMarker1757 are wordPlacementMarker1758 several wordPlacementMarker1759 ways wordPlacementMarker1760 to wordPlacementMarker1761 make wordPlacementMarker1762 changes wordPlacementMarker1763 to wordPlacementMarker1764 the wordPlacementMarker1765 rule wordPlacementMarker1766 set wordPlacementMarker1767 in wordPlacementMarker1768 order wordPlacementMarker1769 for wordPlacementMarker1770 Y wordPlacementMarker1771 to wordPlacementMarker1772 be wordPlacementMarker1773 played  
p508
aa(lp509
F739.964
aF741.161
aV wordPlacementMarker1774 First 
p510
aa(lp511
F741.698
aF741.883
aV  wordPlacementMarker1775 you wordPlacementMarker1776 can wordPlacementMarker1777 delete wordPlacementMarker1778 Rule wordPlacementMarker1779  number nine 
p512
aa(lp513
F743.795
aF743.978
aV  wordPlacementMarker1780 which wordPlacementMarker1781 would wordPlacementMarker1782 cause wordPlacementMarker1783 Rule wordPlacementMarker1784  number four wordPlacementMarker1785 to wordPlacementMarker1786 be wordPlacementMarker1787 the wordPlacementMarker1788 longest wordPlacementMarker1789 rule wordPlacementMarker1790 that wordPlacementMarker1791 fits wordPlacementMarker1792 the wordPlacementMarker1793 history 
p514
aa(lp515
F748.123
aF748.298
aV  wordPlacementMarker1794 and wordPlacementMarker1795 therefore wordPlacementMarker1796 would wordPlacementMarker1797 lead wordPlacementMarker1798 to wordPlacementMarker1799 Y wordPlacementMarker1800 being wordPlacementMarker1801 played wordPlacementMarker1802 next wordPlacementMarker1803 period  
p516
aa(lp517
F751.206
aF757.392
aV wordPlacementMarker1804 Second 
p518
aa(lp519
F757.994
aF758.173
aV  wordPlacementMarker1805 you wordPlacementMarker1806 can wordPlacementMarker1807 add wordPlacementMarker1808 a wordPlacementMarker1809 longer wordPlacementMarker1810 rule wordPlacementMarker1811 that wordPlacementMarker1812 fits wordPlacementMarker1813 the wordPlacementMarker1814 history wordPlacementMarker1815 that wordPlacementMarker1816 has wordPlacementMarker1817 Y wordPlacementMarker1818 as wordPlacementMarker1819 the wordPlacementMarker1820 output  
p520
aa(lp521
F762.091
aF763.282
aV wordPlacementMarker1821 Since wordPlacementMarker1822 you wordPlacementMarker1823 added wordPlacementMarker1824 a wordPlacementMarker1825 longer wordPlacementMarker1826 rule wordPlacementMarker1827 that wordPlacementMarker1828 fits wordPlacementMarker1829 the wordPlacementMarker1830 history 
p522
aa(lp523
F766.195
aF766.371
aV  wordPlacementMarker1831 that wordPlacementMarker1832 rule wordPlacementMarker1833 will wordPlacementMarker1834 be wordPlacementMarker1835 used wordPlacementMarker1836 to wordPlacementMarker1837 make wordPlacementMarker1838 the wordPlacementMarker1839 choice 
p524
aa(lp525
F768.592
aF768.77
aV  wordPlacementMarker1840 and wordPlacementMarker1841 will wordPlacementMarker1842 select wordPlacementMarker1843 Y wordPlacementMarker1844 as wordPlacementMarker1845 the wordPlacementMarker1846 choice wordPlacementMarker1847 for wordPlacementMarker1848 next wordPlacementMarker1849 period  
p526
aa(lp527
F771.378
aF778.063
aV wordPlacementMarker1850 Number wordPlacementMarker1851 of wordPlacementMarker1852 Periods wordPlacementMarker1853 Per wordPlacementMarker1854 Match 
p528
aa(lp529
F779.795
aF780.491
aV wordPlacementMarker1855 The wordPlacementMarker1856 number wordPlacementMarker1857 of wordPlacementMarker1858 periods wordPlacementMarker1859 in wordPlacementMarker1860 each wordPlacementMarker1861 match wordPlacementMarker1862 will wordPlacementMarker1863 be wordPlacementMarker1864 determined wordPlacementMarker1865 randomly wordPlacementMarker1866 using wordPlacementMarker1867 the wordPlacementMarker1868 following wordPlacementMarker1869 procedure  
p530
aa(lp531
F785.19
aF786.388
aV wordPlacementMarker1870 At wordPlacementMarker1871 the wordPlacementMarker1872 end wordPlacementMarker1873 of wordPlacementMarker1874 each wordPlacementMarker1875 period 
p532
aa(lp533
F787.851
aF788.041
aV  wordPlacementMarker1876 a wordPlacementMarker1877 number wordPlacementMarker1878 will wordPlacementMarker1879 be wordPlacementMarker1880 chosen wordPlacementMarker1881 randomly wordPlacementMarker1882 from wordPlacementMarker1883 the wordPlacementMarker1884 set wordPlacementMarker1885 of wordPlacementMarker1886 numbers wordPlacementMarker1887  
p534
aa(lp535
F791.383
aF791.577
aV one 
p536
aa(lp537
F792.129
aF792.337
aV two 
p538
aa(lp539
F792.859
aF793.038
aV three 
p540
aa(lp541
F793.644
aF793.829
aV  wordPlacementMarker1888 up wordPlacementMarker1889 to 
p542
aa(lp543
F794.499
aF794.705
aV forty eight 
p544
aa(lp545
F795.526
aF795.735
aV forty nine 
p546
aa(lp547
F796.765
aF796.967
aV fifty 
p548
aa(lp549
F797.702
aF797.889
aV  wordPlacementMarker1890 where wordPlacementMarker1891 each wordPlacementMarker1892 number wordPlacementMarker1893 is wordPlacementMarker1894 equally wordPlacementMarker1895 likely  
p550
aa(lp551
F799.819
aF801.01
aV wordPlacementMarker1896 If wordPlacementMarker1897 the wordPlacementMarker1898 number wordPlacementMarker1899 is wordPlacementMarker1900 one 
p552
aa(lp553
F802.397
aF802.59
aV  wordPlacementMarker1901 then wordPlacementMarker1902 the wordPlacementMarker1903 match wordPlacementMarker1904 will wordPlacementMarker1905 end  
p554
aa(lp555
F803.762
aF804.948
aV wordPlacementMarker1906 If wordPlacementMarker1907 the wordPlacementMarker1908 number wordPlacementMarker1909 is wordPlacementMarker1910 not wordPlacementMarker1911 one 
p556
aa(lp557
F806.606
aF806.802
aV  wordPlacementMarker1912 then wordPlacementMarker1913 the wordPlacementMarker1914 match wordPlacementMarker1915 will wordPlacementMarker1916 continue  
p558
aa(lp559
F808.275
aF809.456
aV wordPlacementMarker1917 The wordPlacementMarker1918 number wordPlacementMarker1919 will wordPlacementMarker1920 always wordPlacementMarker1921 be wordPlacementMarker1922 placed wordPlacementMarker1923 back wordPlacementMarker1924 into wordPlacementMarker1925 the wordPlacementMarker1926 set wordPlacementMarker1927 after wordPlacementMarker1928 it wordPlacementMarker1929 is wordPlacementMarker1930 drawn  
p560
aa(lp561
F813.069
aF814.25
aV wordPlacementMarker1931 Thus 
p562
aa(lp563
F814.744
aF814.928
aV  wordPlacementMarker1932 in wordPlacementMarker1933 any wordPlacementMarker1934 period wordPlacementMarker1935 there wordPlacementMarker1936 is wordPlacementMarker1937 a wordPlacementMarker1938 two wordPlacementMarker1939 percent wordPlacementMarker1940 CHANCE wordPlacementMarker1941 that wordPlacementMarker1942 the wordPlacementMarker1943 match wordPlacementMarker1944 will wordPlacementMarker1945 end 
p564
aa(lp565
F818.536
aF818.724
aV  wordPlacementMarker1946 and wordPlacementMarker1947 a wordPlacementMarker1948 ninety eight wordPlacementMarker1949 percent wordPlacementMarker1950 CHANCE wordPlacementMarker1951 that wordPlacementMarker1952 the wordPlacementMarker1953 match wordPlacementMarker1954 will wordPlacementMarker1955 have wordPlacementMarker1956 another wordPlacementMarker1957 period  
p566
aa(lp567
F822.312
aF823.499
aV wordPlacementMarker1958 Therefore 
p568
aa(lp569
F824.231
aF824.408
aV  wordPlacementMarker1959 the wordPlacementMarker1960 expected wordPlacementMarker1961 number wordPlacementMarker1962 of wordPlacementMarker1963 periods wordPlacementMarker1964 in wordPlacementMarker1965 each wordPlacementMarker1966 match wordPlacementMarker1967 will wordPlacementMarker1968 be wordPlacementMarker1969 fifty  
p570
aa(lp571
F827.732
aF828.919
aV wordPlacementMarker1970 This wordPlacementMarker1971 procedure wordPlacementMarker1972 has wordPlacementMarker1973 been wordPlacementMarker1974 performed wordPlacementMarker1975 on wordPlacementMarker1976 the wordPlacementMarker1977 computer wordPlacementMarker1978 before wordPlacementMarker1979 the wordPlacementMarker1980 experiment  
p572
aa(lp573
F832.787
aF833.974
aV wordPlacementMarker1981 Therefore 
p574
aa(lp575
F834.705
aF834.879
aV  wordPlacementMarker1982 you wordPlacementMarker1983 will wordPlacementMarker1984 not wordPlacementMarker1985 see wordPlacementMarker1986 the wordPlacementMarker1987 number wordPlacementMarker1988 selected wordPlacementMarker1989 from wordPlacementMarker1990  
p576
aa(lp577
F836.887
aF837.085
aV one 
p578
aa(lp579
F837.638
aF837.845
aV two 
p580
aa(lp581
F838.346
aF838.545
aV three 
p582
aa(lp583
F839.151
aF839.337
aV  wordPlacementMarker1991 up wordPlacementMarker1992 to 
p584
aa(lp585
F840.005
aF840.213
aV forty eight 
p586
aa(lp587
F841.035
aF841.244
aV forty nine 
p588
aa(lp589
F842.272
aF842.474
aV fifty 
p590
aa(lp591
F843.134
aF844.336
aV wordPlacementMarker1993 To wordPlacementMarker1994 ensure wordPlacementMarker1995 that wordPlacementMarker1996 the wordPlacementMarker1997 length wordPlacementMarker1998 of wordPlacementMarker1999 the wordPlacementMarker2000 match wordPlacementMarker2001 is wordPlacementMarker2002 not wordPlacementMarker2003 dependent wordPlacementMarker2004 on wordPlacementMarker2005 your wordPlacementMarker2006 play 
p592
aa(lp593
F847.755
aF847.929
aV  wordPlacementMarker2007 the wordPlacementMarker2008 number wordPlacementMarker2009 of wordPlacementMarker2010 periods wordPlacementMarker2011 for wordPlacementMarker2012 each wordPlacementMarker2013 match wordPlacementMarker2014 has wordPlacementMarker2015 be wordPlacementMarker2016 written wordPlacementMarker2017 on wordPlacementMarker2018 the wordPlacementMarker2019 board wordPlacementMarker2020 before wordPlacementMarker2021 the wordPlacementMarker2022 experiment 
p594
aa(lp595
F852.332
aF852.532
aV  wordPlacementMarker2023 and wordPlacementMarker2024 will wordPlacementMarker2025 be wordPlacementMarker2026 uncovered wordPlacementMarker2027 at wordPlacementMarker2028 the wordPlacementMarker2029 end wordPlacementMarker2030 of wordPlacementMarker2031 the wordPlacementMarker2032 experiment  
p596
aa(lp597
F855.036
aF856.225
aV wordPlacementMarker2033 Your wordPlacementMarker2034 choices wordPlacementMarker2035 will wordPlacementMarker2036 be wordPlacementMarker2037 determined wordPlacementMarker2038 automatically wordPlacementMarker2039 from wordPlacementMarker2040 your wordPlacementMarker2041 rule wordPlacementMarker2042 set  
p598
aa(lp599
F859.453
aF860.661
aV wordPlacementMarker2043 However 
p600
aa(lp601
F861.322
aF861.495
aV  wordPlacementMarker2044 you wordPlacementMarker2045 will wordPlacementMarker2046 need wordPlacementMarker2047 to wordPlacementMarker2048 confirm wordPlacementMarker2049 the wordPlacementMarker2050 choice wordPlacementMarker2051 within wordPlacementMarker2052 an wordPlacementMarker2053 allotted wordPlacementMarker2054 amount wordPlacementMarker2055 of wordPlacementMarker2056 time  
p602
aa(lp603
F864.669
aF865.874
aV wordPlacementMarker2057 To wordPlacementMarker2058 confirm wordPlacementMarker2059 your wordPlacementMarker2060 choice 
p604
aa(lp605
F867.263
aF867.462
aV  wordPlacementMarker2061 click wordPlacementMarker2062 on wordPlacementMarker2063 your wordPlacementMarker2064 action wordPlacementMarker2065 for wordPlacementMarker2066 the wordPlacementMarker2067 next wordPlacementMarker2068 period wordPlacementMarker2069 within wordPlacementMarker2070 the wordPlacementMarker2071 history wordPlacementMarker2072 at wordPlacementMarker2073 the wordPlacementMarker2074 top wordPlacementMarker2075 of wordPlacementMarker2076 the wordPlacementMarker2077 screen  
p606
aa(lp607
F871.722
aF872.904
aV wordPlacementMarker2078 If wordPlacementMarker2079 you wordPlacementMarker2080 don't wordPlacementMarker2081 confirm wordPlacementMarker2082 the wordPlacementMarker2083 choice wordPlacementMarker2084 within wordPlacementMarker2085 the wordPlacementMarker2086 allotted wordPlacementMarker2087 amount wordPlacementMarker2088 of wordPlacementMarker2089 time 
p608
aa(lp609
F876.45
aF876.622
aV  wordPlacementMarker2090 then wordPlacementMarker2091 the wordPlacementMarker2092 choice wordPlacementMarker2093 will wordPlacementMarker2094 be wordPlacementMarker2095 confirmed wordPlacementMarker2096 automatically wordPlacementMarker2097 at wordPlacementMarker2098 the wordPlacementMarker2099 end wordPlacementMarker2100 of wordPlacementMarker2101 the wordPlacementMarker2102 allotted wordPlacementMarker2103 time  
p610
aa(lp611
F880.344
aF881.535
aV wordPlacementMarker2104 The wordPlacementMarker2105 experiment wordPlacementMarker2106 will wordPlacementMarker2107 not wordPlacementMarker2108 be wordPlacementMarker2109 able wordPlacementMarker2110 to wordPlacementMarker2111 proceed wordPlacementMarker2112 until wordPlacementMarker2113 everyone wordPlacementMarker2114 confirms wordPlacementMarker2115 their wordPlacementMarker2116 choices  
p612
aa(lp613
F885.992
aF887.193
aV wordPlacementMarker2117 Everyone wordPlacementMarker2118 in wordPlacementMarker2119 your wordPlacementMarker2120 group wordPlacementMarker2121 will wordPlacementMarker2122 have wordPlacementMarker2123 the wordPlacementMarker2124 same wordPlacementMarker2125 amount wordPlacementMarker2126 of wordPlacementMarker2127 time wordPlacementMarker2128 allotted wordPlacementMarker2129 in wordPlacementMarker2130 each wordPlacementMarker2131 period  
p614
aa(lp615
F891.426
aF893.112
aV wordPlacementMarker2132 Additional wordPlacementMarker2133 Information wordPlacementMarker2134 about wordPlacementMarker2135 Matches 
p616
aa(lp617
F895.294
aF896.01
aV wordPlacementMarker2136 During wordPlacementMarker2137 matches wordPlacementMarker2138 one wordPlacementMarker2139 through wordPlacementMarker2140 ten wordPlacementMarker2141 you wordPlacementMarker2142 will wordPlacementMarker2143 be wordPlacementMarker2144 able wordPlacementMarker2145 to wordPlacementMarker2146 construct wordPlacementMarker2147 the wordPlacementMarker2148 set wordPlacementMarker2149 of wordPlacementMarker2150 rules wordPlacementMarker2151 to wordPlacementMarker2152 make wordPlacementMarker2153 your wordPlacementMarker2154 choices  
p618
aa(lp619
F900.806
aF902.01
aV wordPlacementMarker2155 All wordPlacementMarker2156 of wordPlacementMarker2157 the wordPlacementMarker2158 rules wordPlacementMarker2159 in wordPlacementMarker2160 your wordPlacementMarker2161 set wordPlacementMarker2162 at wordPlacementMarker2163 the wordPlacementMarker2164 end wordPlacementMarker2165 of wordPlacementMarker2166 one wordPlacementMarker2167 match wordPlacementMarker2168 will wordPlacementMarker2169 remain wordPlacementMarker2170 in wordPlacementMarker2171 your wordPlacementMarker2172 set wordPlacementMarker2173 at wordPlacementMarker2174 the wordPlacementMarker2175 start wordPlacementMarker2176 of wordPlacementMarker2177 the wordPlacementMarker2178 next wordPlacementMarker2179 match  
p620
aa(lp621
F907.116
aF908.323
aV wordPlacementMarker2180 Before wordPlacementMarker2181 the wordPlacementMarker2182 first wordPlacementMarker2183 match 
p622
aa(lp623
F909.71
aF909.901
aV  wordPlacementMarker2184 you wordPlacementMarker2185 will wordPlacementMarker2186 have wordPlacementMarker2187 one wordPlacementMarker2188 minute wordPlacementMarker2189 to wordPlacementMarker2190 look wordPlacementMarker2191 over wordPlacementMarker2192 the wordPlacementMarker2193 payoffs 
p624
aa(lp625
F912.217
aF912.408
aV  wordPlacementMarker2194 and wordPlacementMarker2195 an wordPlacementMarker2196 additional wordPlacementMarker2197 ten wordPlacementMarker2198 minute wordPlacementMarker2199 to wordPlacementMarker2200 construct wordPlacementMarker2201 your wordPlacementMarker2202 rules  
p626
aa(lp627
F915.058
aF916.742
aV wordPlacementMarker2203 Editing wordPlacementMarker2204 your wordPlacementMarker2205 set wordPlacementMarker2206 of wordPlacementMarker2207 rules 
p628
aa(lp629
F918.18
aF918.875
aV wordPlacementMarker2208 In wordPlacementMarker2209 the wordPlacementMarker2210 experiment wordPlacementMarker2211 today wordPlacementMarker2212 you wordPlacementMarker2213 will wordPlacementMarker2214 need wordPlacementMarker2215 to wordPlacementMarker2216 pay wordPlacementMarker2217 a wordPlacementMarker2218 cost wordPlacementMarker2219 to wordPlacementMarker2220 edit wordPlacementMarker2221 rules wordPlacementMarker2222 during wordPlacementMarker2223 the wordPlacementMarker2224 match  
p630
aa(lp631
F923.102
aF924.303
aV wordPlacementMarker2225 More wordPlacementMarker2226 specifically 
p632
aa(lp633
F925.504
aF925.706
aV  wordPlacementMarker2227 Before wordPlacementMarker2228 each wordPlacementMarker2229 match wordPlacementMarker2230 starts 
p634
aa(lp635
F927.217
aF927.404
aV  wordPlacementMarker2231 you wordPlacementMarker2232 can wordPlacementMarker2233 make wordPlacementMarker2234 changes wordPlacementMarker2235 to wordPlacementMarker2236 your wordPlacementMarker2237 set wordPlacementMarker2238 of wordPlacementMarker2239 rules wordPlacementMarker2240 at wordPlacementMarker2241 no wordPlacementMarker2242 cost  
p636
aa(lp637
F930.387
aF931.569
aV wordPlacementMarker2243 After wordPlacementMarker2244 each wordPlacementMarker2245 match wordPlacementMarker2246 starts 
p638
aa(lp639
F933.071
aF933.259
aV  wordPlacementMarker2247 if wordPlacementMarker2248 you wordPlacementMarker2249 want wordPlacementMarker2250 to wordPlacementMarker2251 make wordPlacementMarker2252 changes wordPlacementMarker2253 to wordPlacementMarker2254 your wordPlacementMarker2255 set wordPlacementMarker2256 of wordPlacementMarker2257 rules 
p640
aa(lp641
F935.808
aF935.998
aV  wordPlacementMarker2258 you wordPlacementMarker2259 must wordPlacementMarker2260 click wordPlacementMarker2261 the wordPlacementMarker2262 Unlock wordPlacementMarker2263 Rules wordPlacementMarker2264 button  
p642
aa(lp643
F937.93
aF939.125
aV wordPlacementMarker2265 The wordPlacementMarker2266 cost wordPlacementMarker2267 for wordPlacementMarker2268 clicking wordPlacementMarker2269 the wordPlacementMarker2270 Unlock wordPlacementMarker2271 Rules wordPlacementMarker2272 button wordPlacementMarker2273 is wordPlacementMarker2274 two hundred and fifty wordPlacementMarker2275 Francs  
p644
aa(lp645
F943.275
aF944.47
aV wordPlacementMarker2276 The wordPlacementMarker2277 total wordPlacementMarker2278 cost wordPlacementMarker2279 incurred wordPlacementMarker2280 in wordPlacementMarker2281 all wordPlacementMarker2282 matches wordPlacementMarker2283 will wordPlacementMarker2284 be wordPlacementMarker2285 displayed wordPlacementMarker2286 at wordPlacementMarker2287 the wordPlacementMarker2288 top wordPlacementMarker2289 of wordPlacementMarker2290 the wordPlacementMarker2291 screen wordPlacementMarker2292 in wordPlacementMarker2293 red  
p646
aa(lp647
F949.076
aF950.253
aV wordPlacementMarker2294 You wordPlacementMarker2295 will wordPlacementMarker2296 be wordPlacementMarker2297 able wordPlacementMarker2298 to wordPlacementMarker2299 edit wordPlacementMarker2300 your wordPlacementMarker2301 rules wordPlacementMarker2302 for wordPlacementMarker2303 the wordPlacementMarker2304 duration wordPlacementMarker2305 of wordPlacementMarker2306 one wordPlacementMarker2307 period  
p648
aa(lp649
F953.721
aF954.914
aV wordPlacementMarker2308 Once wordPlacementMarker2309 you wordPlacementMarker2310 are wordPlacementMarker2311 done wordPlacementMarker2312 editing wordPlacementMarker2313 your wordPlacementMarker2314 rules wordPlacementMarker2315 you wordPlacementMarker2316 may wordPlacementMarker2317 click wordPlacementMarker2318 the wordPlacementMarker2319 Lock wordPlacementMarker2320 Rules wordPlacementMarker2321 button  
p650
aa(lp651
F958.281
aF959.466
aV wordPlacementMarker2322 If wordPlacementMarker2323 you wordPlacementMarker2324 don't wordPlacementMarker2325 want wordPlacementMarker2326 make wordPlacementMarker2327 changes wordPlacementMarker2328 to wordPlacementMarker2329 your wordPlacementMarker2330 set wordPlacementMarker2331 of wordPlacementMarker2332 rules 
p652
aa(lp653
F962.134
aF962.322
aV  wordPlacementMarker2333 you wordPlacementMarker2334 may wordPlacementMarker2335 choose wordPlacementMarker2336 not wordPlacementMarker2337 to wordPlacementMarker2338 click wordPlacementMarker2339 the wordPlacementMarker2340 Unlock wordPlacementMarker2341 Rule wordPlacementMarker2342 button  
p654
aa(lp655
F964.718
aF965.903
aV wordPlacementMarker2343 Then wordPlacementMarker2344 you wordPlacementMarker2345 will wordPlacementMarker2346 not wordPlacementMarker2347 incur wordPlacementMarker2348 the wordPlacementMarker2349 cost wordPlacementMarker2350 of wordPlacementMarker2351 two hundred and fifty wordPlacementMarker2352 Francs  
p656
aa(lp657
F969.258
aF970.445
aV wordPlacementMarker2353 In wordPlacementMarker2354 either wordPlacementMarker2355 case 
p658
aa(lp659
F971.358
aF971.547
aV  wordPlacementMarker2356 you wordPlacementMarker2357 will wordPlacementMarker2358 need wordPlacementMarker2359 to wordPlacementMarker2360 confirm wordPlacementMarker2361 the wordPlacementMarker2362 choice wordPlacementMarker2363 made wordPlacementMarker2364 within wordPlacementMarker2365 the wordPlacementMarker2366 time wordPlacementMarker2367 limit wordPlacementMarker2368 set wordPlacementMarker2369 for wordPlacementMarker2370 each wordPlacementMarker2371 period  
p660
aa(lp661
F975.37
aF976.559
aV wordPlacementMarker2372 If wordPlacementMarker2373 the wordPlacementMarker2374 time wordPlacementMarker2375 limit wordPlacementMarker2376 within wordPlacementMarker2377 a wordPlacementMarker2378 period wordPlacementMarker2379 reached 
p662
aa(lp663
F978.881
aF979.07
aV  wordPlacementMarker2380 your wordPlacementMarker2381 rules wordPlacementMarker2382 will wordPlacementMarker2383 become wordPlacementMarker2384 locked 
p664
aa(lp665
F980.788
aF980.975
aV  wordPlacementMarker2385 your wordPlacementMarker2386 choice wordPlacementMarker2387 will wordPlacementMarker2388 be wordPlacementMarker2389 confirmed wordPlacementMarker2390 automatically 
p666
aa(lp667
F983.236
aF983.424
aV  wordPlacementMarker2391 and wordPlacementMarker2392 you wordPlacementMarker2393 will wordPlacementMarker2394 proceed wordPlacementMarker2395 to wordPlacementMarker2396 the wordPlacementMarker2397 next wordPlacementMarker2398 period  
p668
aa(lp669
F985.517
aF987.205
aV wordPlacementMarker2399 Starting wordPlacementMarker2400 Rules 
p670
aa(lp671
F988.258
aF988.965
aV wordPlacementMarker2401 Prior wordPlacementMarker2402 to wordPlacementMarker2403 the wordPlacementMarker2404 start wordPlacementMarker2405 of wordPlacementMarker2406 the wordPlacementMarker2407 experiment wordPlacementMarker2408 you wordPlacementMarker2409 will wordPlacementMarker2410 have wordPlacementMarker2411 ten wordPlacementMarker2412 minutes wordPlacementMarker2413 to wordPlacementMarker2414 construct wordPlacementMarker2415 your wordPlacementMarker2416 starting wordPlacementMarker2417 set wordPlacementMarker2418 of wordPlacementMarker2419 rules  
p672
aa(lp673
F994.163
aF995.36
aV wordPlacementMarker2420 During wordPlacementMarker2421 that wordPlacementMarker2422 time 
p674
aa(lp675
F996.369
aF996.519
aV  wordPlacementMarker2423 you wordPlacementMarker2424 will wordPlacementMarker2425 be wordPlacementMarker2426 presented wordPlacementMarker2427 with wordPlacementMarker2428 a wordPlacementMarker2429 split screen wordPlacementMarker2430 view wordPlacementMarker2431 of wordPlacementMarker2432 of wordPlacementMarker2433 the wordPlacementMarker2434 construction wordPlacementMarker2435 screen  
p676
aa(lp677
F1000.265
aF1001.432
aV wordPlacementMarker2436 In wordPlacementMarker2437 this wordPlacementMarker2438 view 
p678
aa(lp679
F1002.317
aF1002.498
aV  wordPlacementMarker2439 you wordPlacementMarker2440 will wordPlacementMarker2441 have wordPlacementMarker2442 an wordPlacementMarker2443 opportunity wordPlacementMarker2444 to wordPlacementMarker2445 test wordPlacementMarker2446 what wordPlacementMarker2447 your wordPlacementMarker2448 rule wordPlacementMarker2449 set wordPlacementMarker2450 will wordPlacementMarker2451 select wordPlacementMarker2452 as wordPlacementMarker2453 an wordPlacementMarker2454 output wordPlacementMarker2455 for wordPlacementMarker2456 a wordPlacementMarker2457 variety wordPlacementMarker2458 of wordPlacementMarker2459 hypothetical wordPlacementMarker2460 histories  
p680
aa(lp681
F1008.845
aF1010.041
aV wordPlacementMarker2461 The wordPlacementMarker2462 split screen wordPlacementMarker2463 will wordPlacementMarker2464 consist wordPlacementMarker2465 of wordPlacementMarker2466 two wordPlacementMarker2467 sides  
p682
aa(lp683
F1012.497
aF1013.695
aV wordPlacementMarker2468 The wordPlacementMarker2469 right wordPlacementMarker2470 side wordPlacementMarker2471 is wordPlacementMarker2472 the wordPlacementMarker2473 Starting wordPlacementMarker2474 Rules wordPlacementMarker2475 side  
p684
aa(lp685
F1016.117
aF1017.309
aV wordPlacementMarker2476 Rules wordPlacementMarker2477 added wordPlacementMarker2478 to wordPlacementMarker2479 this wordPlacementMarker2480 side wordPlacementMarker2481 will wordPlacementMarker2482 be wordPlacementMarker2483 added wordPlacementMarker2484 to wordPlacementMarker2485 your wordPlacementMarker2486 rule wordPlacementMarker2487 set wordPlacementMarker2488 at wordPlacementMarker2489 the wordPlacementMarker2490 start wordPlacementMarker2491 of wordPlacementMarker2492 the wordPlacementMarker2493 first wordPlacementMarker2494 match  
p686
aa(lp687
F1021.445
aF1022.634
aV wordPlacementMarker2495 The wordPlacementMarker2496 left wordPlacementMarker2497 side wordPlacementMarker2498 is wordPlacementMarker2499 the wordPlacementMarker2500 Hypothetical wordPlacementMarker2501 Rules wordPlacementMarker2502 side  
p688
aa(lp689
F1025.246
aF1026.436
aV wordPlacementMarker2503 Rules wordPlacementMarker2504 added wordPlacementMarker2505 to wordPlacementMarker2506 this wordPlacementMarker2507 side wordPlacementMarker2508 can wordPlacementMarker2509 be wordPlacementMarker2510 used wordPlacementMarker2511 to wordPlacementMarker2512 test wordPlacementMarker2513 to wordPlacementMarker2514 see wordPlacementMarker2515 what wordPlacementMarker2516 choices wordPlacementMarker2517 different wordPlacementMarker2518 combinations wordPlacementMarker2519 of wordPlacementMarker2520 rules wordPlacementMarker2521 will wordPlacementMarker2522 lead wordPlacementMarker2523 to  
p690
aa(lp691
F1032.373
aF1033.554
aV wordPlacementMarker2524 You wordPlacementMarker2525 will wordPlacementMarker2526 be wordPlacementMarker2527 able wordPlacementMarker2528 to wordPlacementMarker2529 move wordPlacementMarker2530 rules wordPlacementMarker2531 from wordPlacementMarker2532 the wordPlacementMarker2533 Hypothetical wordPlacementMarker2534 Rules wordPlacementMarker2535 side wordPlacementMarker2536 to wordPlacementMarker2537 the wordPlacementMarker2538 Starting wordPlacementMarker2539 Rules wordPlacementMarker2540 side wordPlacementMarker2541 by wordPlacementMarker2542 clicking wordPlacementMarker2543 the wordPlacementMarker2544 blue wordPlacementMarker2545 move wordPlacementMarker2546 button  
p692
aa(lp693
F1039.904
aF1041.106
aV wordPlacementMarker2547 To wordPlacementMarker2548 delete wordPlacementMarker2549 rules wordPlacementMarker2550 from wordPlacementMarker2551 either wordPlacementMarker2552 side 
p694
aa(lp695
F1043.099
aF1043.275
aV  wordPlacementMarker2553 you wordPlacementMarker2554 need wordPlacementMarker2555 to wordPlacementMarker2556 click wordPlacementMarker2557 the wordPlacementMarker2558 delete wordPlacementMarker2559 button  
p696
aa(lp697
F1044.898
aF1046.078
aV wordPlacementMarker2560 You wordPlacementMarker2561 will wordPlacementMarker2562 be wordPlacementMarker2563 able wordPlacementMarker2564 to wordPlacementMarker2565 see wordPlacementMarker2566 what wordPlacementMarker2567 choice wordPlacementMarker2568 your wordPlacementMarker2569 hypothetical 
p698
aa(lp699
F1048.82
aF1049.007
aV  wordPlacementMarker2570 and wordPlacementMarker2571 your wordPlacementMarker2572 starting wordPlacementMarker2573 rule wordPlacementMarker2574 sets wordPlacementMarker2575 select wordPlacementMarker2576 as wordPlacementMarker2577 a wordPlacementMarker2578 choice wordPlacementMarker2579 for wordPlacementMarker2580 next wordPlacementMarker2581 period 
p700
aa(lp701
F1052.302
aF1052.504
aV  wordPlacementMarker2582 for wordPlacementMarker2583 each wordPlacementMarker2584 of wordPlacementMarker2585 the wordPlacementMarker2586 hypothetical wordPlacementMarker2587 histories wordPlacementMarker2588 that wordPlacementMarker2589 you wordPlacementMarker2590 construct  
p702
aa(lp703
F1055.554
aF1056.741
aV wordPlacementMarker2591 Notice wordPlacementMarker2592 that wordPlacementMarker2593 you wordPlacementMarker2594 will wordPlacementMarker2595 be wordPlacementMarker2596 able wordPlacementMarker2597 to wordPlacementMarker2598 construct 
p704
aa(lp705
F1058.941
aF1059.123
aV  wordPlacementMarker2599 and wordPlacementMarker2600 store 
p706
aa(lp707
F1059.764
aF1059.941
aV  wordPlacementMarker2601 multiple wordPlacementMarker2602 histories wordPlacementMarker2603 at wordPlacementMarker2604 the wordPlacementMarker2605 same wordPlacementMarker2606 time  
p708
aa(lp709
F1062.148
aF1063.335
aV wordPlacementMarker2607 You wordPlacementMarker2608 can wordPlacementMarker2609 view wordPlacementMarker2610 one wordPlacementMarker2611 of wordPlacementMarker2612 the wordPlacementMarker2613 other wordPlacementMarker2614 hypothetical wordPlacementMarker2615 histories wordPlacementMarker2616 by wordPlacementMarker2617 clicking wordPlacementMarker2618 the wordPlacementMarker2619 History wordPlacementMarker2620  number  wordPlacementMarker2621 button wordPlacementMarker2622 at wordPlacementMarker2623 the wordPlacementMarker2624 top wordPlacementMarker2625 of wordPlacementMarker2626 the wordPlacementMarker2627 Hypothetical wordPlacementMarker2628 Rules wordPlacementMarker2629 side  
p710
aa(lp711
F1070.443
aF1071.628
aV wordPlacementMarker2630 You wordPlacementMarker2631 can wordPlacementMarker2632 add wordPlacementMarker2633 a wordPlacementMarker2634 new wordPlacementMarker2635 hypothetical wordPlacementMarker2636 history wordPlacementMarker2637 by wordPlacementMarker2638 clicking wordPlacementMarker2639 the wordPlacementMarker2640 New wordPlacementMarker2641 button wordPlacementMarker2642 at wordPlacementMarker2643 the wordPlacementMarker2644 top wordPlacementMarker2645 of wordPlacementMarker2646 the wordPlacementMarker2647 Hypothetical wordPlacementMarker2648 Rules wordPlacementMarker2649 side  
p712
aa(lp713
F1077.312
aF1078.546
aV wordPlacementMarker2650 To wordPlacementMarker2651 construct wordPlacementMarker2652 a wordPlacementMarker2653 hypothetical wordPlacementMarker2654 history wordPlacementMarker2655 you wordPlacementMarker2656 will wordPlacementMarker2657 need wordPlacementMarker2658 to wordPlacementMarker2659 click wordPlacementMarker2660 on wordPlacementMarker2661 the wordPlacementMarker2662 question wordPlacementMarker2663 marks wordPlacementMarker2664 in wordPlacementMarker2665 that wordPlacementMarker2666 history  
p714
aa(lp715
F1083.658
aF1084.848
aV wordPlacementMarker2667 You wordPlacementMarker2668 don't wordPlacementMarker2669 need wordPlacementMarker2670 to wordPlacementMarker2671 fill wordPlacementMarker2672 out wordPlacementMarker2673 the wordPlacementMarker2674 entire wordPlacementMarker2675 history wordPlacementMarker2676 to wordPlacementMarker2677 see wordPlacementMarker2678 what wordPlacementMarker2679 choice wordPlacementMarker2680 your wordPlacementMarker2681 rule wordPlacementMarker2682 set wordPlacementMarker2683 will wordPlacementMarker2684 make  
p716
aa(lp717
F1089.288
aF1090.484
aV wordPlacementMarker2685 Therefore 
p718
aa(lp719
F1091.216
aF1091.391
aV  wordPlacementMarker2686 it wordPlacementMarker2687 is wordPlacementMarker2688 useful wordPlacementMarker2689 to wordPlacementMarker2690 start wordPlacementMarker2691 filling wordPlacementMarker2692 out wordPlacementMarker2693 the wordPlacementMarker2694 new wordPlacementMarker2695 histories wordPlacementMarker2696 from wordPlacementMarker2697 the wordPlacementMarker2698 most wordPlacementMarker2699 recent wordPlacementMarker2700 periods wordPlacementMarker2701 on wordPlacementMarker2702 the wordPlacementMarker2703 right wordPlacementMarker2704 side  
p720
aa(lp721
F1096.549
aF1097.735
aV wordPlacementMarker2705 Let's wordPlacementMarker2706 look wordPlacementMarker2707 at wordPlacementMarker2708 an wordPlacementMarker2709 example  
p722
aa(lp723
F1099.227
aF1100.434
aV wordPlacementMarker2710 Five wordPlacementMarker2711 periods wordPlacementMarker2712 of wordPlacementMarker2713 hypothetical wordPlacementMarker2714 History wordPlacementMarker2715  number four wordPlacementMarker2716 have wordPlacementMarker2717 been wordPlacementMarker2718 filled wordPlacementMarker2719 in  
p724
aa(lp725
F1104.509
aF1105.698
aV wordPlacementMarker2720 The wordPlacementMarker2721 hypothetical wordPlacementMarker2722 rule wordPlacementMarker2723 set wordPlacementMarker2724 will wordPlacementMarker2725 play wordPlacementMarker2726 W wordPlacementMarker2727 after wordPlacementMarker2728 this wordPlacementMarker2729 history wordPlacementMarker2730 occurs  
p726
aa(lp727
F1109.719
aF1110.909
aV wordPlacementMarker2731 The wordPlacementMarker2732 starting wordPlacementMarker2733 rule wordPlacementMarker2734 set wordPlacementMarker2735 will wordPlacementMarker2736 play wordPlacementMarker2737 Y wordPlacementMarker2738 after wordPlacementMarker2739 this wordPlacementMarker2740 history wordPlacementMarker2741 occurs  
p728
aa(lp729
F1114.471
aF1120.655
aV wordPlacementMarker2742 Let's wordPlacementMarker2743 look wordPlacementMarker2744 at wordPlacementMarker2745 another wordPlacementMarker2746 example  
p730
aa(lp731
F1122.393
aF1123.597
aV wordPlacementMarker2747 fourteen wordPlacementMarker2748 periods wordPlacementMarker2749 of wordPlacementMarker2750 hypothetical wordPlacementMarker2751 History wordPlacementMarker2752  number three wordPlacementMarker2753 have wordPlacementMarker2754 been wordPlacementMarker2755 filled wordPlacementMarker2756 in  
p732
aa(lp733
F1127.822
aF1129.008
aV wordPlacementMarker2757 The wordPlacementMarker2758 hypothetical wordPlacementMarker2759 rule wordPlacementMarker2760 set wordPlacementMarker2761 will wordPlacementMarker2762 play wordPlacementMarker2763 Y wordPlacementMarker2764 after wordPlacementMarker2765 this wordPlacementMarker2766 history wordPlacementMarker2767 occurs  
p734
aa(lp735
F1132.903
aF1134.093
aV wordPlacementMarker2768 The wordPlacementMarker2769 starting wordPlacementMarker2770 rule wordPlacementMarker2771 set wordPlacementMarker2772 will wordPlacementMarker2773 play wordPlacementMarker2774 Y wordPlacementMarker2775 after wordPlacementMarker2776 this wordPlacementMarker2777 history wordPlacementMarker2778 occurs  
p736
aa(lp737
F1137.654
aF1143.838
aV wordPlacementMarker2779 You wordPlacementMarker2780 will wordPlacementMarker2781 be wordPlacementMarker2782 able wordPlacementMarker2783 to wordPlacementMarker2784 make wordPlacementMarker2785 changes wordPlacementMarker2786 to wordPlacementMarker2787 your wordPlacementMarker2788 Hypothetical wordPlacementMarker2789 Rules 
p738
aa(lp739
F1147.07
aF1147.244
aV  wordPlacementMarker2790 and wordPlacementMarker2791 your wordPlacementMarker2792 Starting wordPlacementMarker2793 Rules 
p740
aa(lp741
F1148.585
aF1148.796
aV  wordPlacementMarker2794 for wordPlacementMarker2795 the wordPlacementMarker2796 duration wordPlacementMarker2797 of wordPlacementMarker2798 the wordPlacementMarker2799 ten wordPlacementMarker2800 minutes  
p742
aa(lp743
F1150.705
aF1151.897
aV wordPlacementMarker2801 After wordPlacementMarker2802 the wordPlacementMarker2803 ten wordPlacementMarker2804 minutes wordPlacementMarker2805 are wordPlacementMarker2806 up 
p744
aa(lp745
F1153.389
aF1153.574
aV  wordPlacementMarker2807 rules wordPlacementMarker2808 that wordPlacementMarker2809 are wordPlacementMarker2810 on wordPlacementMarker2811 the wordPlacementMarker2812 Starting wordPlacementMarker2813 Rules wordPlacementMarker2814 side wordPlacementMarker2815 will wordPlacementMarker2816 be wordPlacementMarker2817 your wordPlacementMarker2818 starting wordPlacementMarker2819 rules wordPlacementMarker2820 for wordPlacementMarker2821 the wordPlacementMarker2822 experiment  
p746
aa(lp747
F1158.233
aF1159.934
aV wordPlacementMarker2823 Payoffs 
p748
aa(lp749
F1160.596
aF1161.297
aV wordPlacementMarker2824 At wordPlacementMarker2825 the wordPlacementMarker2826 end wordPlacementMarker2827 of wordPlacementMarker2828 the wordPlacementMarker2829 experiment 
p750
aa(lp751
F1163.014
aF1163.199
aV  wordPlacementMarker2830 you wordPlacementMarker2831 will wordPlacementMarker2832 be wordPlacementMarker2833 paid wordPlacementMarker2834 in wordPlacementMarker2835 cash  
p752
aa(lp753
F1164.632
aF1165.811
aV wordPlacementMarker2836 Your wordPlacementMarker2837 payoff wordPlacementMarker2838 at wordPlacementMarker2839 the wordPlacementMarker2840 end wordPlacementMarker2841 of wordPlacementMarker2842 the wordPlacementMarker2843 experiment wordPlacementMarker2844 will wordPlacementMarker2845 be wordPlacementMarker2846 the wordPlacementMarker2847 sum wordPlacementMarker2848 of wordPlacementMarker2849 the wordPlacementMarker2850 payoffs wordPlacementMarker2851 for wordPlacementMarker2852 each wordPlacementMarker2853 period  
p754
aa(lp755
F1170.215
aF1171.396
aV wordPlacementMarker2854 Reminder 
p756
aa(lp757
F1172.143
aF1172.311
aV  wordPlacementMarker2855 the wordPlacementMarker2856 exchange wordPlacementMarker2857 rate wordPlacementMarker2858 today wordPlacementMarker2859 is wordPlacementMarker2860 one thousand two hundred and fifty wordPlacementMarker2861 Francs wordPlacementMarker2862 equals wordPlacementMarker2863 one wordPlacementMarker2864 dollar  
p758
aa(lp759
F1176.871
aF1178.557
aV wordPlacementMarker2865 Practice wordPlacementMarker2866 Match 
p760
aa(lp761
F1179.489
aF1180.178
aV wordPlacementMarker2867 Next 
p762
aa(lp763
F1180.781
aF1180.974
aV  wordPlacementMarker2868 there wordPlacementMarker2869 will wordPlacementMarker2870 be wordPlacementMarker2871 a wordPlacementMarker2872 practice wordPlacementMarker2873 match wordPlacementMarker2874 to wordPlacementMarker2875 make wordPlacementMarker2876 sure wordPlacementMarker2877 that wordPlacementMarker2878 you wordPlacementMarker2879 are wordPlacementMarker2880 comfortable wordPlacementMarker2881 with wordPlacementMarker2882 the wordPlacementMarker2883 interface  
p764
aa(lp765
F1185.001
aF1186.185
aV wordPlacementMarker2884 It wordPlacementMarker2885 is wordPlacementMarker2886 important wordPlacementMarker2887 to wordPlacementMarker2888 note wordPlacementMarker2889 that wordPlacementMarker2890 in wordPlacementMarker2891 this wordPlacementMarker2892 practice wordPlacementMarker2893 match 
p766
aa(lp767
F1189.0
aF1189.191
aV  wordPlacementMarker2894 you wordPlacementMarker2895 will wordPlacementMarker2896 NOT wordPlacementMarker2897 be wordPlacementMarker2898 paid wordPlacementMarker2899 for wordPlacementMarker2900 the wordPlacementMarker2901 choices wordPlacementMarker2902 made  
p768
aa(lp769
F1191.309
aF1192.497
aV wordPlacementMarker2903 the wordPlacementMarker2904 payoffs wordPlacementMarker2905 are wordPlacementMarker2906 all wordPlacementMarker2907 listed wordPlacementMarker2908 as wordPlacementMarker2909 zero 
p770
aa(lp771
F1194.772
aF1194.963
aV  wordPlacementMarker2910 so wordPlacementMarker2911 that wordPlacementMarker2912 you wordPlacementMarker2913 can wordPlacementMarker2914 focus wordPlacementMarker2915 on wordPlacementMarker2916 getting wordPlacementMarker2917 comfortable wordPlacementMarker2918 with wordPlacementMarker2919 the wordPlacementMarker2920 interface 
p772
aa(lp773
F1198.16
aF1198.352
aV  wordPlacementMarker2921 rather wordPlacementMarker2922 than wordPlacementMarker2923 focusing wordPlacementMarker2924 on wordPlacementMarker2925 the wordPlacementMarker2926 payoffs  
p774
aa(lp775
F1200.368
aF1201.56
aV wordPlacementMarker2927 You wordPlacementMarker2928 are wordPlacementMarker2929 NOT wordPlacementMarker2930 paired wordPlacementMarker2931 with wordPlacementMarker2932 another wordPlacementMarker2933 participant  
p776
aa(lp777
F1203.795
aF1204.978
aV wordPlacementMarker2934 Your wordPlacementMarker2935 opponent wordPlacementMarker2936 for wordPlacementMarker2937 the wordPlacementMarker2938 practice wordPlacementMarker2939 match wordPlacementMarker2940 is wordPlacementMarker2941 a wordPlacementMarker2942 computer wordPlacementMarker2943 that wordPlacementMarker2944 is wordPlacementMarker2945 playing wordPlacementMarker2946 RANDOMLY  
p778
aa(lp779
F1210.452
aF1210.452
aS''
p780
aa.