(dp0
S'messages'
p1
(lp2
(dp3
S'questionStatement'
p4
S''
p5
sS'ruleNumbers'
p6
(lp7
I1
aI4
aI7
aI9
aI13
aI16
asS'firstPeriod'
p8
I0
sS'rules'
p9
(lp10
(lp11
(lp12
I1
aaa(lp13
(lp14
I0
aI0
aa(lp15
I1
aaa(lp16
(lp17
I1
aI1
aa(lp18
I1
aaa(lp19
(lp20
I0
aI1
aa(lp21
I0
aI0
aa(lp22
I0
aaasS'ruleFrequency'
p23
(lp24
I9
aI3
aI5
aI4
aI7
aI1
asS'type'
p25
S'quizQuestion'
p26
sS'ruleLastUsed'
p27
(lp28
I5
aI3
aI7
aI2
aI4
aI2
asS'history'
p29
(lp30
(lp31
I1
aI1
aa(lp32
I0
aI1
aa(lp33
I0
aI0
aa(lp34
I1
aI1
aa(lp35
I1
aI1
aa(lp36
I1
aI0
aa(lp37
I1
aI0
aa(lp38
I0
aI0
aa(lp39
I0
aI1
aa(lp40
I0
aI0
aa(lp41
I0
aI0
aa(lp42
I0
aI0
aa(lp43
I1
aI1
aa(lp44
I0
aI0
aa(lp45
I1
aI1
aa(lp46
I0
aI0
aa(lp47
I1
aI1
aa(lp48
I1
aI0
aa(lp49
I0
aI1
aa(lp50
I1
aI0
aa(lp51
I0
aI1
aa(lp52
I0
aI0
aa(lp53
I0
aI0
aa(lp54
I1
aI1
aa(lp55
I0
aI0
aa(lp56
I0
aI0
aa(lp57
I0
aI1
aa(lp58
I0
aI0
aasa(dp59
g4
g5
sg6
g7
sg8
I1
sg9
(lp60
(lp61
(lp62
I0
aaa(lp63
(lp64
I0
aI0
aa(lp65
I1
aaa(lp66
(lp67
I1
aI1
aa(lp68
I1
aaa(lp69
(lp70
I0
aI1
aa(lp71
I0
aI0
aa(lp72
I1
aaasg23
g24
sg25
g26
sg27
g28
sg29
(lp73
(lp74
I0
aI0
aa(lp75
I0
aI0
aa(lp76
I1
aI1
aa(lp77
I1
aI1
aa(lp78
I1
aI1
aa(lp79
I0
aI0
aa(lp80
I0
aI0
aa(lp81
I1
aI1
aa(lp82
I0
aI0
aa(lp83
I0
aI0
aa(lp84
I1
aI1
aa(lp85
I1
aI0
aa(lp86
I1
aI1
aa(lp87
I0
aI0
aa(lp88
I1
aI0
aa(lp89
I1
aI1
aa(lp90
I1
aI0
aa(lp91
I1
aI1
aa(lp92
I0
aI1
aa(lp93
I0
aI0
aa(lp94
I0
aI1
aa(lp95
I1
aI0
aa(lp96
I1
aI0
aa(lp97
I1
aI0
aa(lp98
I0
aI0
aa(lp99
I0
aI0
aa(lp100
I0
aI1
aa(lp101
I1
aI1
aasa(dp102
g4
g5
sg6
g7
sg8
I1
sg9
(lp103
(lp104
(lp105
I1
aaa(lp106
(lp107
I0
aI0
aa(lp108
I1
aaa(lp109
(lp110
I1
aI1
aa(lp111
I1
aaa(lp112
(lp113
I0
aI1
aa(lp114
I0
aI1
aa(lp115
I0
aaa(lp116
(lp117
I0
aI1
aa(lp118
I1
aI1
aa(lp119
I1
aaasg23
g24
sg25
g26
sg27
g28
sg29
(lp120
(lp121
I1
aI1
aa(lp122
I1
aI0
aa(lp123
I0
aI1
aa(lp124
I0
aI1
aa(lp125
I1
aI0
aa(lp126
I0
aI1
aa(lp127
I1
aI1
aa(lp128
I1
aI0
aa(lp129
I0
aI1
aa(lp130
I1
aI1
aa(lp131
I0
aI1
aa(lp132
I0
aI1
aa(lp133
I0
aI1
aa(lp134
I0
aI1
aa(lp135
I0
aI0
aa(lp136
I0
aI0
aa(lp137
I0
aI0
aa(lp138
I1
aI1
aa(lp139
I0
aI0
aa(lp140
I0
aI1
aa(lp141
I0
aI1
aa(lp142
I1
aI1
aa(lp143
I0
aI0
aa(lp144
I0
aI1
aa(lp145
I1
aI1
aa(lp146
I1
aI0
aa(lp147
I0
aI1
aa(lp148
I0
aI1
aasa(dp149
g4
g5
sg6
g7
sg8
I0
sg9
(lp150
(lp151
(lp152
I0
aaa(lp153
(lp154
I0
aI0
aa(lp155
I0
aaa(lp156
(lp157
I1
aI1
aa(lp158
I1
aaa(lp159
(lp160
I0
aI1
aa(lp161
I0
aI1
aa(lp162
I1
aaa(lp163
(lp164
I0
aI1
aa(lp165
I0
aI1
aa(lp166
I1
aI0
aa(lp167
I0
aaasg23
g24
sg25
g26
sg27
g28
sg29
(lp168
(lp169
I1
aI1
aa(lp170
I0
aI1
aa(lp171
I1
aI0
aa(lp172
I1
aI0
aa(lp173
I1
aI1
aa(lp174
I1
aI0
aa(lp175
I0
aI0
aa(lp176
I0
aI1
aa(lp177
I0
aI1
aa(lp178
I1
aI1
aa(lp179
I0
aI0
aa(lp180
I0
aI0
aa(lp181
I1
aI0
aa(lp182
I0
aI1
aa(lp183
I0
aI0
aa(lp184
I1
aI1
aa(lp185
I0
aI1
aa(lp186
I0
aI1
aa(lp187
I0
aI0
aa(lp188
I1
aI0
aa(lp189
I0
aI1
aa(lp190
I0
aI0
aa(lp191
I0
aI0
aa(lp192
I0
aI1
aa(lp193
I1
aI1
aa(lp194
I1
aI0
aa(lp195
I1
aI1
aa(lp196
I0
aI1
aasa(dp197
g4
g5
sg6
g7
sg8
I0
sg9
(lp198
(lp199
(lp200
I1
aaa(lp201
(lp202
I0
aI0
aa(lp203
I0
aaa(lp204
(lp205
I1
aI1
aa(lp206
I1
aaa(lp207
(lp208
I0
aI1
aa(lp209
I0
aI1
aa(lp210
I1
aaa(lp211
(lp212
I0
aI1
aa(lp213
I0
aI1
aa(lp214
I1
aI1
aa(lp215
I1
aaasg23
g24
sg25
g26
sg27
g28
sg29
(lp216
(lp217
I1
aI0
aa(lp218
I0
aI1
aa(lp219
I1
aI1
aa(lp220
I1
aI1
aa(lp221
I1
aI0
aa(lp222
I0
aI1
aa(lp223
I0
aI0
aa(lp224
I0
aI1
aa(lp225
I0
aI0
aa(lp226
I1
aI1
aa(lp227
I0
aI1
aa(lp228
I1
aI1
aa(lp229
I1
aI0
aa(lp230
I1
aI1
aa(lp231
I0
aI0
aa(lp232
I0
aI0
aa(lp233
I1
aI0
aa(lp234
I1
aI1
aa(lp235
I1
aI1
aa(lp236
I0
aI0
aa(lp237
I0
aI1
aa(lp238
I1
aI0
aa(lp239
I1
aI0
aa(lp240
I0
aI1
aa(lp241
I1
aI1
aa(lp242
I1
aI0
aa(lp243
I0
aI1
aa(lp244
I0
aI1
aasa(dp245
g4
g5
sg6
g7
sg8
I1
sg9
(lp246
(lp247
(lp248
I0
aaa(lp249
(lp250
I0
aI1
aa(lp251
I1
aaa(lp252
(lp253
I1
aI0
aa(lp254
I0
aaa(lp255
(lp256
I0
aI1
aa(lp257
I0
aI1
aa(lp258
I0
aaa(lp259
(lp260
I0
aI1
aa(lp261
I0
aI1
aa(lp262
I1
aI1
aa(lp263
I1
aaasg23
g24
sg25
g26
sg27
g28
sg29
(lp264
(lp265
I0
aI1
aa(lp266
I1
aI1
aa(lp267
I0
aI0
aa(lp268
I0
aI1
aa(lp269
I1
aI1
aa(lp270
I0
aI1
aa(lp271
I0
aI0
aa(lp272
I1
aI1
aa(lp273
I0
aI1
aa(lp274
I0
aI0
aa(lp275
I1
aI1
aa(lp276
I1
aI1
aa(lp277
I1
aI1
aa(lp278
I0
aI1
aa(lp279
I1
aI0
aa(lp280
I1
aI1
aa(lp281
I0
aI0
aa(lp282
I1
aI1
aa(lp283
I1
aI0
aa(lp284
I0
aI0
aa(lp285
I1
aI0
aa(lp286
I0
aI0
aa(lp287
I0
aI0
aa(lp288
I0
aI0
aa(lp289
I0
aI1
aa(lp290
I1
aI0
aa(lp291
I1
aI1
aa(lp292
I0
aI1
aasasS'questions'
p293
(lp294
(dp295
S'questionType'
p296
I1
sS'questionNumber'
p297
I1
sg4
g5
sg6
g7
sS'questionParams'
p298
(lp299
sg8
I0
sg9
g10
sg23
g24
sS'answer'
p300
I0
sg25
g26
sg27
g28
sS'answerStatement'
p301
S'Rule #4 and Rule #9 fit the history.  Since Rule #9 is longer, you will play W in the next period.'
p302
sg29
g30
sa(dp303
g296
I2
sg297
I2
sg4
S"Last problem you learned that you will play W next period.  If the other's choice is W, what will YOUR payoff be?"
p304
sg6
g7
sg298
(lp305
I0
aS'YOUR'
p306
asg8
I0
sg9
g10
sg23
g24
sg300
I8
sg25
g26
sg27
g28
sg301
S"If your choice is W and other's choice is W in the next period then YOUR payoff will be 8."
p307
sg29
g30
sa(dp308
g296
I3
sg297
I3
sg4
g5
sg6
g7
sg298
(lp309
I1
asg8
I0
sg9
g10
sg23
g24
sg300
(lp310
(lp311
g58
a(lp312
I1
aaa(lp313
g57
ag58
a(lp314
I1
aaa(lp315
g56
ag57
ag58
a(lp316
I1
aaa(lp317
g55
ag56
ag57
ag58
a(lp318
I1
aaa(lp319
g54
ag55
ag56
ag57
ag58
a(lp320
I1
aaa(lp321
g53
ag54
ag55
ag56
ag57
ag58
a(lp322
I1
aaa(lp323
g52
ag53
ag54
ag55
ag56
ag57
ag58
a(lp324
I1
aaa(lp325
g51
ag52
ag53
ag54
ag55
ag56
ag57
ag58
a(lp326
I1
aaa(lp327
g50
ag51
ag52
ag53
ag54
ag55
ag56
ag57
ag58
a(lp328
I1
aaa(lp329
g49
ag50
ag51
ag52
ag53
ag54
ag55
ag56
ag57
ag58
a(lp330
I1
aaa(lp331
g48
ag49
ag50
ag51
ag52
ag53
ag54
ag55
ag56
ag57
ag58
a(lp332
I1
aaa(lp333
g47
ag48
ag49
ag50
ag51
ag52
ag53
ag54
ag55
ag56
ag57
ag58
a(lp334
I1
aaa(lp335
g46
ag47
ag48
ag49
ag50
ag51
ag52
ag53
ag54
ag55
ag56
ag57
ag58
a(lp336
I1
aaa(lp337
g45
ag46
ag47
ag48
ag49
ag50
ag51
ag52
ag53
ag54
ag55
ag56
ag57
ag58
a(lp338
I1
aaa(lp339
g44
ag45
ag46
ag47
ag48
ag49
ag50
ag51
ag52
ag53
ag54
ag55
ag56
ag57
ag58
a(lp340
I1
aaa(lp341
g43
ag44
ag45
ag46
ag47
ag48
ag49
ag50
ag51
ag52
ag53
ag54
ag55
ag56
ag57
ag58
a(lp342
I1
aaa(lp343
g42
ag43
ag44
ag45
ag46
ag47
ag48
ag49
ag50
ag51
ag52
ag53
ag54
ag55
ag56
ag57
ag58
a(lp344
I1
aaa(lp345
g41
ag42
ag43
ag44
ag45
ag46
ag47
ag48
ag49
ag50
ag51
ag52
ag53
ag54
ag55
ag56
ag57
ag58
a(lp346
I1
aaa(lp347
g40
ag41
ag42
ag43
ag44
ag45
ag46
ag47
ag48
ag49
ag50
ag51
ag52
ag53
ag54
ag55
ag56
ag57
ag58
a(lp348
I1
aaasg25
g26
sg27
g28
sg301
S'Rule #9 fits the history and would play W next period.  You need to create a rule with output Y that is LONGER then rule #7 that also fits the history.  For example: [W,W],[W,Y],[W,W],[Y].'
p349
sg29
g30
sa(dp350
g296
I1
sg297
I4
sg4
g5
sg6
g7
sg298
(lp351
sg8
I1
sg9
g60
sg23
g24
sg300
I1
sg25
g26
sg27
g28
sg301
S'Rule #7 fits the history, so with the current rules you will play Y in the next period.'
p352
sg29
g73
sa(dp353
g296
I2
sg297
I5
sg4
S"Last problem you learned that you will play Y next period.  If the other's choice is Y, what will YOUR payoff be?"
p354
sg6
g7
sg298
(lp355
I1
ag306
asg8
I1
sg9
g60
sg23
g24
sg300
I2
sg25
g26
sg27
g28
sg301
S"If your choice is Y and other's choice is Y in the next period then YOUR payoff will be 2."
p356
sg29
g73
sa(dp357
g296
I4
sg297
I6
sg4
g5
sg6
g7
sg298
(lp358
I0
asg8
I1
sg9
g60
sg23
g24
sg300
(lp359
(lp360
I1
aI1
aa(lp361
I1
aasg25
g26
sg27
g28
sg301
S'Rule #7 is the only rule that fits the history, and would play Y next period.  The default Rule is W.   Therefore, if rule #7 is deleted, then W will be played next period.'
p362
sg29
g73
sa(dp363
g296
I1
sg297
I7
sg4
g5
sg6
g7
sg298
(lp364
sg8
I1
sg9
g103
sg23
g24
sg300
I0
sg25
g26
sg27
g28
sg301
S'Rule #9 fits the history, so with the current rules you will play W in the next period.'
p365
sg29
g120
sa(dp366
g296
I2
sg297
I8
sg4
S"Last problem you learned that you will play W next period.  If the other's choice is W, what will the OTHER'S payoff be?"
p367
sg6
g7
sg298
(lp368
I0
aS"OTHER'S"
p369
asg8
I1
sg9
g103
sg23
g24
sg300
I7
sg25
g26
sg27
g28
sg301
S"If your choice is W and other's choice is W in the next period then OTHER'S payoff will be 7."
p370
sg29
g120
sa(dp371
g296
I5
sg297
I9
sg4
g5
sg6
g7
sg298
(lp372
I1
asg8
I1
sg9
g103
sg23
g24
sg300
(lp373
(lp374
I0
aI1
aa(lp375
I0
aI1
aa(lp376
I1
aasg25
g26
sg27
g28
sg301
S'Rule #9 is the only rule that fits the history, and would play W next period.  Therefore, if copy rule #9, and change the output to Y, and then switch rules, then Y will be played in the next period.'
p377
sg29
g120
sa(dp378
g296
I1
sg297
I10
sg4
g5
sg6
g7
sg298
(lp379
sg8
I0
sg9
g150
sg23
g24
sg300
I0
sg25
g26
sg27
g28
sg301
S'No rules in your set fit the history.  Since W is your default rule, W will be played next period.'
p380
sg29
g168
sa(dp381
g296
I2
sg297
I11
sg4
g5
sg6
g7
sg298
(lp382
I1
ag369
asg8
I0
sg9
g150
sg23
g24
sg300
I5
sg25
g26
sg27
g28
sg301
S'If you and the participant you are paired with both play W in the next period then YOUR payoff will be 5.'
p383
sg29
g168
sa(dp384
g296
I3
sg297
I12
sg4
g5
sg6
g7
sg298
(lp385
I1
asg8
I0
sg9
g150
sg23
g24
sg300
(lp386
(lp387
g196
a(lp388
I1
aaa(lp389
g195
ag196
a(lp390
I1
aaa(lp391
g194
ag195
ag196
a(lp392
I1
aaa(lp393
g193
ag194
ag195
ag196
a(lp394
I1
aaa(lp395
g192
ag193
ag194
ag195
ag196
a(lp396
I1
aaa(lp397
g191
ag192
ag193
ag194
ag195
ag196
a(lp398
I1
aaa(lp399
g190
ag191
ag192
ag193
ag194
ag195
ag196
a(lp400
I1
aaa(lp401
g189
ag190
ag191
ag192
ag193
ag194
ag195
ag196
a(lp402
I1
aaa(lp403
g188
ag189
ag190
ag191
ag192
ag193
ag194
ag195
ag196
a(lp404
I1
aaa(lp405
g187
ag188
ag189
ag190
ag191
ag192
ag193
ag194
ag195
ag196
a(lp406
I1
aaa(lp407
g186
ag187
ag188
ag189
ag190
ag191
ag192
ag193
ag194
ag195
ag196
a(lp408
I1
aaa(lp409
g185
ag186
ag187
ag188
ag189
ag190
ag191
ag192
ag193
ag194
ag195
ag196
a(lp410
I1
aaa(lp411
g184
ag185
ag186
ag187
ag188
ag189
ag190
ag191
ag192
ag193
ag194
ag195
ag196
a(lp412
I1
aaa(lp413
g183
ag184
ag185
ag186
ag187
ag188
ag189
ag190
ag191
ag192
ag193
ag194
ag195
ag196
a(lp414
I1
aaa(lp415
g182
ag183
ag184
ag185
ag186
ag187
ag188
ag189
ag190
ag191
ag192
ag193
ag194
ag195
ag196
a(lp416
I1
aaa(lp417
g181
ag182
ag183
ag184
ag185
ag186
ag187
ag188
ag189
ag190
ag191
ag192
ag193
ag194
ag195
ag196
a(lp418
I1
aaa(lp419
g180
ag181
ag182
ag183
ag184
ag185
ag186
ag187
ag188
ag189
ag190
ag191
ag192
ag193
ag194
ag195
ag196
a(lp420
I1
aaa(lp421
g179
ag180
ag181
ag182
ag183
ag184
ag185
ag186
ag187
ag188
ag189
ag190
ag191
ag192
ag193
ag194
ag195
ag196
a(lp422
I1
aaa(lp423
g178
ag179
ag180
ag181
ag182
ag183
ag184
ag185
ag186
ag187
ag188
ag189
ag190
ag191
ag192
ag193
ag194
ag195
ag196
a(lp424
I1
aaasg25
g26
sg27
g28
sg301
S'Rule #7 fits the history and would play W next period.  In order to ensure that Y is played next period, you need to create a rule with output Y that is LONGER then rule #7 that also fits the history.'
p425
sg29
g168
sa(dp426
g296
I1
sg297
I13
sg4
g5
sg6
g7
sg298
(lp427
sg8
I0
sg9
g198
sg23
g24
sg300
I1
sg25
g26
sg27
g28
sg29
g216
sa(dp428
g296
I2
sg297
I14
sg4
g5
sg6
g7
sg298
(lp429
I0
ag306
asg8
I0
sg9
g198
sg23
g24
sg300
I4
sg25
g26
sg27
g28
sg29
g216
sa(dp430
g296
I4
sg297
I15
sg4
g5
sg6
g7
sg298
(lp431
I0
asg8
I0
sg9
g198
sg23
g24
sg300
I0
sg25
g26
sg27
g28
sg29
g216
sa(dp432
g296
I1
sg297
I16
sg4
g5
sg6
g7
sg298
(lp433
sg8
I1
sg9
g246
sg23
g24
sg300
I1
sg25
g26
sg27
g28
sg29
g264
sa(dp434
g296
I2
sg297
I17
sg4
g5
sg6
g7
sg298
(lp435
I1
ag306
asg8
I1
sg9
g246
sg23
g24
sg300
I2
sg25
g26
sg27
g28
sg29
g264
sa(dp436
g296
I5
sg297
I18
sg4
g5
sg6
g7
sg298
(lp437
I0
asg8
I1
sg9
g246
sg23
g24
sg300
I0
sg25
g26
sg27
g28
sg29
g264
sasS'payoffs'
p438
(lp439
(lp440
I8
aI7
aa(lp441
I6
aI5
aa(lp442
I4
aI3
aa(lp443
I2
aI1
aas.