(lp0
(dp1
S'args'
p2
(dp3
S'color'
p4
S'rgba(0,0,255,.1)'
p5
ssS'func'
p6
S'changeBackgroundColor'
p7
sa(dp8
g2
(dp9
S'fontSize'
p10
I300
sS'divID'
p11
S'automatic'
p12
sg4
S'rgba(0,0,0,1)'
p13
sS'text'
p14
S'Welcome To'
p15
sS'top'
p16
I150
sS'fadeTime'
p17
I2
sS'textAlign'
p18
S'center'
p19
sS'left'
p20
I0
ssg6
S'placeText'
p21
sa(dp22
g2
(dp23
g10
I300
sg11
S'automatic2'
p24
sg4
g13
sg14
S'The Vernon Smith'
p25
sg16
I625
sg17
I2
sg18
g19
sg20
I0
ssg6
g21
sa(dp26
g2
(dp27
g10
I300
sg11
S'automatic3'
p28
sg4
g13
sg14
S'Experimental Economics Laboratory'
p29
sg16
I700
sg17
I2
sg18
g19
sg20
I0
ssg6
g21
sa(dp30
g2
(dp31
S'functionName'
p32
S'drawLogoVSEEL'
p33
ssg6
S'runJavascriptFunction'
p34
sa(dp35
g2
(dp36
g32
S'clearAllInstructions'
p37
ssg6
g34
sa(dp38
g2
(dp39
g4
S'rgba(0,255,0,.1)'
p40
ssg6
g7
sa(dp41
g2
(dp42
g11
S'instructionsSlideTitle'
p43
sg4
S'rgba(0,127,0,1)'
p44
sg14
S'Welcome'
p45
sg16
I50
sg17
I1
sg10
I400
sg18
g19
sg20
I0
ssg6
g21
sa(dp46
g2
(dp47
g11
S'instructionsSlideEntry1'
p48
sg4
g13
sg14
S'Economics Experiment.'
p49
sg16
I200
sg17
I2
sg10
I300
sg18
g19
sg20
I0
ssg6
g21
sa(dp50
g2
(dp51
g11
S'instructionsSlideEntry2'
p52
sg4
g13
sg14
S'Will get paid in cash at the end of the experiment.'
p53
sg16
I350
sg17
I2
sg10
I300
sg18
g19
sg20
I0
ssg6
g21
sa(dp54
g2
(dp55
g11
S'instructionsSlideEntry3'
p56
sg4
g13
sg14
S'Please remain silent.'
p57
sg16
I500
sg17
I2
sg10
I300
sg18
g19
sg20
I0
ssg6
g21
sa(dp58
g2
(dp59
g11
S'instructionsSlideEntry4'
p60
sg4
g13
sg14
S'Please raise your hand for help.'
p61
sg16
I650
sg17
I2
sg10
I300
sg18
g19
sg20
I0
ssg6
g21
sa(dp62
g2
(dp63
g32
g37
ssg6
g34
sa(dp64
g2
(dp65
g4
S'rgba(255,0,0,.1)'
p66
ssg6
g7
sa(dp67
g2
(dp68
g11
g43
sg4
S'rgba(127,0,0,1)'
p69
sg14
g45
sg16
I50
sg17
I1
sg10
I400
sg18
g19
sg20
I0
ssg6
g21
sa(dp70
g2
(dp71
g11
S'instructionsSlideEntry1'
p72
sg4
g13
sg14
S'Do not talk, laugh or exclaim out loud.'
p73
sg16
I200
sg17
I2
sg10
I300
sg18
g19
sg20
I0
ssg6
g21
sa(dp74
g2
(dp75
g11
S'instructionsSlideEntry2'
p76
sg4
g13
sg14
S'Keep your eyes on your screen only.'
p77
sg16
I350
sg17
I2
sg10
I300
sg18
g19
sg20
I0
ssg6
g21
sa(dp78
g2
(dp79
g11
S'instructionsSlideEntry3'
p80
sg4
g13
sg14
S'Turn off cell phones, etc. and put them away.'
p81
sg16
I500
sg17
I2
sg10
I300
sg18
g19
sg20
I0
ssg6
g21
sa(dp82
g2
(dp83
g11
S'instructionsSlideEntry4'
p84
sg4
g13
sg14
S'We appreciate your cooperation.'
p85
sg16
I650
sg17
I2
sg10
I300
sg18
g19
sg20
I0
ssg6
g21
sa(dp86
g2
(dp87
g32
g37
ssg6
g34
sa(dp88
g2
(dp89
g4
S'rgba(0,0,255,.1)'
p90
ssg6
g7
sa(dp91
g2
(dp92
g11
g43
sg4
S'rgba(0,0,127,1)'
p93
sg14
S'Agenda'
p94
sg16
I50
sg17
I1
sg10
I400
sg18
g19
sg20
I0
ssg6
g21
sa(dp95
g2
(dp96
g11
S'instructionsSlideEntry1'
p97
sg4
g13
sg14
S'1. Instructions'
p98
sg16
I150
sg17
I2
sg10
I300
sg18
g20
sg20
I200
ssg6
g21
sa(dp99
g2
(dp100
g11
S'instructionsSlideEntry2'
p101
sg4
g13
sg14
S'2. Practice Match'
p102
sg16
I250
sg17
I2
sg10
I300
sg18
g20
sg20
I200
ssg6
g21
sa(dp103
g2
(dp104
g11
S'instructionsSlideEntry3'
p105
sg4
g13
sg14
S'3. Quiz (10 questions, Earn up to $10)'
p106
sg16
I350
sg17
I2
sg10
I300
sg18
g20
sg20
I200
ssg6
g21
sa(dp107
g2
(dp108
g11
S'instructionsSlideEntry4'
p109
sg4
g13
sg14
S'Answers to all questions in instructions.'
p110
sg16
I450
sg17
I2
sg10
I300
sg18
g20
sg20
I300
ssg6
g21
sa(dp111
g2
(dp112
g11
S'instructionsSlideEntry5'
p113
sg4
g13
sg14
S'$10 if you answer all 10 questions correctly.'
p114
sg16
I550
sg17
I2
sg10
I300
sg18
g20
sg20
I300
ssg6
g21
sa(dp115
g2
(dp116
g11
S'instructionsSlideEntry6'
p117
sg4
g13
sg14
S"$0 you don't answer all questions correctly."
p118
sg16
I650
sg17
I2
sg10
I300
sg18
g20
sg20
I300
ssg6
g21
sa(dp119
g2
(dp120
g11
S'instructionsSlideEntry7'
p121
sg4
g13
sg14
S'10 minutes to answer all questions.'
p122
sg16
I750
sg17
I2
sg10
I300
sg18
g20
sg20
I300
ssg6
g21
sa(dp123
g2
(dp124
g11
S'instructionsSlideEntry8'
p125
sg4
g13
sg14
S'4. Experiment'
p126
sg16
I850
sg17
I2
sg10
I300
sg18
g20
sg20
I200
ssg6
g21
sa(dp127
g2
(dp128
g32
g37
ssg6
g34
sa(dp129
g2
(dp130
g4
S'rgba(0,255,0,.1)'
p131
ssg6
g7
sa(dp132
g2
(dp133
g11
g43
sg4
S'rgba(0,127,0,1)'
p134
sg14
S'Exchange Rate'
p135
sg16
I50
sg17
I1
sg10
I400
sg18
g19
sg20
I0
ssg6
g21
sa(dp136
g2
(dp137
g11
S'instructionsSlideEntry1'
p138
sg4
g13
sg14
S'1250 Francs = $1.00'
p139
sg16
I450
sg17
I2
sg10
I900
sg18
g19
sg20
I0
ssg6
g21
sa(dp140
g2
(dp141
g32
g37
ssg6
g34
sa(dp142
g2
(dp143
g4
S'rgba(255,0,0,.1)'
p144
ssg6
g7
sa(dp145
g2
(dp146
g11
g43
sg4
S'rgba(127,0,0,1)'
p147
sg14
S'Experiment Details'
p148
sg16
I50
sg17
I1
sg10
I400
sg18
g19
sg20
I0
ssg6
g21
sa(dp149
g2
(dp150
g11
S'instructionsSlideEntry1'
p151
sg4
g13
sg14
S'10 Matches.'
p152
sg16
I175
sg17
I2
sg10
I300
sg18
g19
sg20
I0
ssg6
g21
sa(dp153
g2
(dp154
g11
S'instructionsSlideEntry2'
p155
sg4
g13
sg14
S'Participants split into two groups.'
p156
sg16
I275
sg17
I2
sg10
I300
sg18
g19
sg20
I0
ssg6
g21
sa(dp157
g2
(dp158
g11
S'instructionsSlideEntry3'
p159
sg4
g13
sg14
S'Randomly paired with another participant from group at the start of each match.'
p160
sg16
I375
sg17
I2
sg10
I300
sg18
g19
sg20
I0
ssg6
g21
sa(dp161
g2
(dp162
g11
S'instructionsSlideEntry4'
p163
sg4
g13
sg14
S'Each match has a different number of periods.'
p164
sg16
I475
sg17
I2
sg10
I300
sg18
g19
sg20
I0
ssg6
g21
sa(dp165
g2
(dp166
g11
S'instructionsSlideEntry5'
p167
sg4
g13
sg14
S'You will remain anonymous.'
p168
sg16
I575
sg17
I2
sg10
I300
sg18
g19
sg20
I0
ssg6
g21
sa(dp169
g2
(dp170
g11
S'instructionsSlideEntry6'
p171
sg4
g13
sg14
S'Choice only affect you and participant you are paired with.'
p172
sg16
I675
sg17
I2
sg10
I300
sg18
g19
sg20
I0
ssg6
g21
sa(dp173
g2
(dp174
g32
g37
ssg6
g34
sa(dp175
g2
(dp176
S'y'
p177
I300
ssg6
S'changeCaptionBottom'
p178
sa(dp179
g2
(dp180
g32
S'drawInstructionDemoPreChoice'
p181
ssg6
g34
sa(dp182
g2
(dp183
g32
S'drawCursorOverlay'
p184
ssg6
g34
sa(dp185
g2
(dp186
g177
I600
sS'x'
p187
I800
ssg6
S'placeCursor'
p188
sa(dp189
g2
(dp190
g32
S'toggleOverlay'
p191
ssg6
g34
sa(dp192
g2
(dp193
g32
g191
ssg6
g34
sa(dp194
g2
(dp195
S'divName'
p196
S'gameDiv'
p197
ssg6
S'highlightDiv'
p198
sa(dp199
g2
(dp200
S'sequence'
p201
(lp202
(lp203
S'toDiv'
p204
a(dp205
g196
g197
saassS'runOnRefresh'
p206
I00
sg6
S'mouseSequence'
p207
sa(dp208
g2
(dp209
g201
(lp210
(lp211
g204
a(dp212
g196
S'gameTableRowLabel_1'
p213
saassg206
I00
sg6
g207
sa(dp214
g2
(dp215
g201
(lp216
(lp217
g204
a(dp218
g196
S'gameTableRowLabel_2'
p219
saassg206
I00
sg6
g207
sa(dp220
g2
(dp221
g201
(lp222
(lp223
g204
a(dp224
g196
S'gameTableColLabel_1'
p225
saassg206
I00
sg6
g207
sa(dp226
g2
(dp227
g201
(lp228
(lp229
g204
a(dp230
g196
S'gameTableColLabel_2'
p231
saassg206
I00
sg6
g207
sa(dp232
g2
(dp233
g201
(lp234
(lp235
g204
a(dp236
g196
g219
saassg206
I00
sg6
g207
sa(dp237
g2
(dp238
g201
(lp239
(lp240
g204
a(dp241
g196
g225
saassg206
I00
sg6
g207
sa(dp242
g2
(dp243
g201
(lp244
(lp245
g204
a(dp246
g196
S'gameTableEntryPay1_2_1'
p247
saassg206
I00
sg6
g207
sa(dp248
g2
(dp249
g201
(lp250
(lp251
g204
a(dp252
g196
S'gameTableEntryPay2_2_1'
p253
saassg206
I00
sg6
g207
sa(dp254
g2
(dp255
g196
g197
ssg6
S'unHighlightDiv'
p256
sa(dp257
g2
(dp258
g196
S'questionsDiv'
p259
ssg6
g198
sa(dp260
g2
(dp261
g201
(lp262
(lp263
g204
a(dp264
g196
S'periodSummaryLabel'
p265
saassg206
I00
sg6
g207
sa(dp266
g2
(dp267
g201
(lp268
(lp269
g204
a(dp270
g196
S'summaryLabel'
p271
saassg206
I00
sg6
g207
sa(dp272
g2
(dp273
g196
g259
ssg6
g256
sa(dp274
g2
(dp275
g196
S'historyDiv'
p276
ssg6
g198
sa(dp277
g2
(dp278
g196
S'historyLabels'
p279
ssg6
g198
sa(dp280
g2
(dp281
g201
(lp282
(lp283
g204
a(dp284
g196
g279
saassg206
I00
sg6
g207
sa(dp285
g2
(dp286
g196
g276
ssg6
g256
sa(dp287
g2
(dp288
g196
g279
ssg6
g256
sa(dp289
g2
(dp290
g196
S'statusBar'
p291
ssg6
g198
sa(dp292
g2
(dp293
g201
(lp294
(lp295
g204
a(dp296
g196
g291
saassg206
I00
sg6
g207
sa(dp297
g2
(dp298
g196
g291
ssg6
g256
sa(dp299
g2
(dp300
g32
g191
ssg6
g34
sa(dp301
g2
(dp302
g201
(lp303
(lp304
g204
a(dp305
g196
g213
saa(lp306
S'clickDiv'
p307
a(dp308
g2
(dp309
S'row'
p310
I1
ssg6
S'instructionsSelectRow'
p311
sg196
g213
saassg206
I00
sg6
g207
sa(dp312
g2
(dp313
g201
(lp314
(lp315
g204
a(dp316
g196
S'summaryMyChoiceEntry'
p317
saassg206
I00
sg6
g207
sa(dp318
g2
(dp319
g201
(lp320
(lp321
g204
a(dp322
g196
g231
saa(lp323
g307
a(dp324
g2
(dp325
S'col'
p326
I2
ssg6
S'instructionsSelectCol'
p327
sg196
g231
saassg206
I00
sg6
g207
sa(dp328
g2
(dp329
g201
(lp330
(lp331
g204
a(dp332
g196
S'summaryOthersChoiceEntryGuess'
p333
saassg206
I00
sg6
g207
sa(dp334
g2
(dp335
g201
(lp336
(lp337
g204
a(dp338
g196
g291
saassg206
I00
sg6
g207
sa(dp339
g2
(dp340
sg6
S'instructionsFinishPeriod'
p341
sa(dp342
g2
(dp343
g201
(lp344
(lp345
g204
a(dp346
S'anchor'
p347
S'south'
p348
sg196
S'selectedColumnDiv2'
p349
saassg206
I00
sg6
g207
sa(dp350
g2
(dp351
g201
(lp352
(lp353
g204
a(dp354
g196
S'gameTableEntry_1_1'
p355
saassg206
I00
sg6
g207
sa(dp356
g2
(dp357
g201
(lp358
(lp359
g204
a(dp360
g196
S'summaryOthersChoiceEntryActual'
p361
saassg206
I00
sg6
g207
sa(dp362
g2
(dp363
g201
(lp364
(lp365
g204
a(dp366
g196
S'summaryPayoffs'
p367
saassg206
I00
sg6
g207
sa(dp368
g2
(dp369
g201
(lp370
(lp371
g204
a(dp372
g196
S'historyEntry_20_0'
p373
saassg206
I00
sg6
g207
sa(dp374
g2
(dp375
g201
(lp376
(lp377
g204
a(dp378
g196
g271
saassg206
I00
sg6
g207
sa(dp379
g2
(dp380
g201
(lp381
(lp382
g204
a(dp383
g196
S'totalPayoffMineLabel'
p384
saassg206
I00
sg6
g207
sa(dp385
g2
(dp386
g201
(lp387
(lp388
g204
a(dp389
g196
S'correctGuessesLabel'
p390
saassg206
I00
sg6
g207
sa(dp391
g2
(dp392
g201
(lp393
(lp394
g204
a(dp395
g196
g355
saassg206
I00
sg6
g207
sa(dp396
g2
(dp397
g201
(lp398
(lp399
g307
a(dp400
g2
(dp401
sg6
S'instructionsMovetoNextPeriod'
p402
sg196
g355
saassg206
I00
sg6
g207
sa(dp403
g2
(dp404
g32
g37
ssg6
g34
sa(dp405
g2
(dp406
g4
S'rgba(0,255,0,.1)'
p407
ssg6
g7
sa(dp408
g2
(dp409
g11
g43
sg4
S'rgba(0,127,0,1)'
p410
sg14
S'Number of Periods Per Match'
p411
sg16
I50
sg17
I1
sg10
I400
sg18
g19
sg20
I0
ssg6
g21
sa(dp412
g2
(dp413
g11
S'instructionsSlideEntry1'
p414
sg4
g13
sg14
S'Each Period 1 Number drawn from set'
p415
sg16
I150
sg17
I2
sg10
I300
sg18
g19
sg20
I0
ssg6
g21
sa(dp416
g2
(dp417
g11
S'instructionsSlideEntry2'
p418
sg4
g13
sg14
S'{1,2,3,...,98,99,100} (and replaced).'
p419
sg16
I250
sg17
I2
sg10
I300
sg18
g19
sg20
I0
ssg6
g21
sa(dp420
g2
(dp421
g11
S'instructionsSlideEntry3'
p422
sg4
g13
sg14
S'If Number is 1 - The match ends.'
p423
sg16
I350
sg17
I2
sg10
I300
sg18
g19
sg20
I0
ssg6
g21
sa(dp424
g2
(dp425
g11
S'instructionsSlideEntry4'
p426
sg4
g13
sg14
S'If Number is not 1 - There match will continue.'
p427
sg16
I450
sg17
I2
sg10
I300
sg18
g19
sg20
I0
ssg6
g21
sa(dp428
g2
(dp429
g11
S'instructionsSlideEntry5'
p430
sg4
g13
sg14
S'Expected number of periods is 100 (but may be different).'
p431
sg16
I550
sg17
I2
sg10
I300
sg18
g19
sg20
I0
ssg6
g21
sa(dp432
g2
(dp433
g11
S'instructionsSlideEntry6'
p434
sg4
g13
sg14
S'This procedure has been performed on the computer,'
p435
sg16
I650
sg17
I2
sg10
I300
sg18
g19
sg20
I0
ssg6
g21
sa(dp436
g2
(dp437
g11
S'instructionsSlideEntry7'
p438
sg4
g13
sg14
S'before the experiment.'
p439
sg16
I750
sg17
I2
sg10
I300
sg18
g19
sg20
I0
ssg6
g21
sa(dp440
g2
(dp441
g32
g37
ssg6
g34
sa(dp442
g2
(dp443
g4
S'rgba(255,0,0,.1)'
p444
ssg6
g7
sa(dp445
g2
(dp446
g11
g43
sg4
S'rgba(127,0,0,1)'
p447
sg14
S'Payoffs'
p448
sg16
I50
sg17
I1
sg10
I400
sg18
g19
sg20
I0
ssg6
g21
sa(dp449
g2
(dp450
g11
S'instructionsSlideEntry1'
p451
sg4
g13
sg14
S'Your payment will contain the following:'
p452
sg16
I150
sg17
I2
sg10
I300
sg18
g20
sg20
I200
ssg6
g21
sa(dp453
g2
(dp454
g11
S'instructionsSlideEntry2'
p455
sg4
g13
sg14
S'1. $5 Show up fee.'
p456
sg16
I250
sg17
I2
sg10
I300
sg18
g20
sg20
I250
ssg6
g21
sa(dp457
g2
(dp458
g11
S'instructionsSlideEntry3'
p459
sg4
g13
sg14
S'2. Payment from randomly selected block of 30 periods.'
p460
sg16
I350
sg17
I2
sg10
I300
sg18
g20
sg20
I250
ssg6
g21
sa(dp461
g2
(dp462
g11
S'instructionsSlideEntry4'
p463
sg4
g13
sg14
S'3. Bonus payment for raffle tickets.'
p464
sg16
I450
sg17
I2
sg10
I300
sg18
g20
sg20
I250
ssg6
g21
sa(dp465
g2
(dp466
g11
S'instructionsSlideEntry5'
p467
sg4
g13
sg14
S'4. Payment for Three Additional Tasks.'
p468
sg16
I550
sg17
I2
sg10
I300
sg18
g20
sg20
I250
ssg6
g21
sa(dp469
g2
(dp470
g11
S'instructionsSlideEntry6'
p471
sg4
g13
sg14
S'Francs converted to dollars at the end.'
p472
sg16
I650
sg17
I2
sg10
I300
sg18
g20
sg20
I200
ssg6
g21
sa(dp473
g2
(dp474
g11
S'instructionsSlideEntry7'
p475
sg4
g13
sg14
S'Paid in cash, in private.'
p476
sg16
I750
sg17
I2
sg10
I300
sg18
g20
sg20
I200
ssg6
g21
sa(dp477
g2
(dp478
g32
g37
ssg6
g34
sa(dp479
g2
(dp480
g4
S'rgba(0,0,255,.1)'
p481
ssg6
g7
sa(dp482
g2
(dp483
g11
g43
sg4
S'rgba(0,0,127,1)'
p484
sg14
S'Random Block of 30 Periods'
p485
sg16
I50
sg17
I1
sg10
I400
sg18
g19
sg20
I0
ssg6
g21
sa(dp486
g2
(dp487
g11
S'instructionsSlideEntry1'
p488
sg4
g13
sg14
S'Randomly select 1 period.'
p489
sg16
I175
sg17
I2
sg10
I300
sg18
g19
sg20
I0
ssg6
g21
sa(dp490
g2
(dp491
g11
S'instructionsSlideEntry2'
p492
sg4
g13
sg14
S'Block contains that period, and following 29.'
p493
sg16
I275
sg17
I2
sg10
I300
sg18
g19
sg20
I0
ssg6
g21
sa(dp494
g2
(dp495
g11
S'instructionsSlideEntry3'
p496
sg4
g13
sg14
S'Block can span multiple matches.'
p497
sg16
I375
sg17
I2
sg10
I300
sg18
g19
sg20
I0
ssg6
g21
sa(dp498
g2
(dp499
g11
S'instructionsSlideEntry4'
p500
sg4
g13
sg14
S'If period is at end, then block loops to 1st period.'
p501
sg16
I475
sg17
I2
sg10
I300
sg18
g19
sg20
I0
ssg6
g21
sa(dp502
g2
(dp503
g11
S'instructionsSlideEntry5'
p504
sg4
g13
sg14
S'Each period equally likely to be paid.'
p505
sg16
I575
sg17
I2
sg10
I300
sg18
g19
sg20
I0
ssg6
g21
sa(dp506
g2
(dp507
g11
S'instructionsSlideEntry6'
p508
sg4
g13
sg14
S'Random period pre-selected, written on board.'
p509
sg16
I675
sg17
I2
sg10
I300
sg18
g19
sg20
I0
ssg6
g21
sa(dp510
g2
(dp511
g32
g37
ssg6
g34
sa(dp512
g2
(dp513
g4
S'rgba(255,0,0,.1)'
p514
ssg6
g7
sa(dp515
g2
(dp516
g11
g43
sg4
S'rgba(127,0,0,1)'
p517
sg14
S'Random Block of 30 Periods: Examples'
p518
sg16
I50
sg17
I1
sg10
I400
sg18
g19
sg20
I0
ssg6
g21
sa(dp519
g2
(dp520
g11
S'instructionsSlideEntry1'
p521
sg4
g13
sg14
S'Randomly selected period: Match #4 Period #14,'
p522
sg16
I200
sg17
I2
sg10
I300
sg18
g20
sg20
I200
ssg6
g21
sa(dp523
g2
(dp524
g11
S'instructionsSlideEntry2'
p525
sg4
g13
sg14
S'Block: Match #4 P14-P43.'
p526
sg16
I300
sg17
I2
sg10
I300
sg18
g20
sg20
I200
ssg6
g21
sa(dp527
g2
(dp528
g11
S'instructionsSlideEntry3'
p529
sg4
g13
sg14
S'Randomly selected period: Match #2 Period #91,'
p530
sg16
I450
sg17
I2
sg10
I300
sg18
g20
sg20
I200
ssg6
g21
sa(dp531
g2
(dp532
g11
S'instructionsSlideEntry4'
p533
sg4
g13
sg14
S'Block: Match #2 P91-P100 and Match #3 P1-P20.'
p534
sg16
I550
sg17
I2
sg10
I300
sg18
g20
sg20
I200
ssg6
g21
sa(dp535
g2
(dp536
g11
S'instructionsSlideEntry5'
p537
sg4
g13
sg14
S'Randomly selected period: Match #5 Period #81,'
p538
sg16
I700
sg17
I2
sg10
I300
sg18
g20
sg20
I200
ssg6
g21
sa(dp539
g2
(dp540
g11
S'instructionsSlideEntry6'
p541
sg4
g13
sg14
S'Block: Match #5 P81-P85 and Match #1 P1-P25.'
p542
sg16
I800
sg17
I2
sg10
I300
sg18
g20
sg20
I200
ssg6
g21
sa.