(lp0
(lp1
F0.007
aF0.007
aa(lp2
F0.0
aF0.007
aa(lp3
F0.516
aF0.523
aa(lp4
F0.689
aF1.212
aa(lp5
F1.5490000000000002
aF2.761
aa(lp6
F9.611999999999998
aF12.373
aa(lp7
F0.0
aF12.373
aa(lp8
F0.0
aF12.373
aa(lp9
F4.281000000000001
aF16.654
aa(lp10
F5.3679999999999986
aF22.022
aa(lp11
F8.521
aF30.543
aa(lp12
F7.8359999999999985
aF38.379
aa(lp13
F4.131
aF42.51
aa(lp14
F0.0
aF42.51
aa(lp15
F0.0
aF42.51
aa(lp16
F1.5080000000000027
aF44.018
aa(lp17
F3.2819999999999965
aF47.3
aa(lp18
F4.044000000000004
aF51.344
aa(lp19
F12.043999999999997
aF63.388
aa(lp20
F4.274999999999999
aF67.663
aa(lp21
F0.0
aF67.663
aa(lp22
F0.0
aF67.663
aa(lp23
F1.2460000000000093
aF68.909
aa(lp24
F5.459999999999994
aF74.369
aa(lp25
F6.290000000000006
aF80.659
aa(lp26
F9.961999999999989
aF90.621
aa(lp27
F5.560000000000002
aF96.181
aa(lp28
F5.576999999999998
aF101.758
aa(lp29
F9.055000000000007
aF110.813
aa(lp30
F3.807000000000002
aF114.62
aa(lp31
F7.329999999999998
aF121.95
aa(lp32
F0.0
aF121.95
aa(lp33
F0.0
aF121.95
aa(lp34
F9.885000000000005
aF131.835
aa(lp35
F11.625
aF143.46
aa(lp36
F0.0
aF143.46
aa(lp37
F0.0
aF143.46
aa(lp38
F2.0909999999999798
aF145.551
aa(lp39
F3.670000000000016
aF149.221
aa(lp40
F12.460000000000008
aF161.681
aa(lp41
F18.84699999999998
aF180.528
aa(lp42
F3.724000000000018
aF184.252
aa(lp43
F10.225999999999999
aF194.478
aa(lp44
F17.596000000000004
aF212.074
aa(lp45
F0.0
aF212.074
aa(lp46
F0.0
aF212.074
aa(lp47
F0.0
aF212.074
aa(lp48
F0.0
aF212.074
aa(lp49
F33.63799999999998
aF245.712
aa(lp50
F0.0
aF245.712
aa(lp51
F6.7590000000000146
aF252.471
aa(lp52
F6.5919999999999845
aF259.063
aa(lp53
F7.725999999999999
aF266.789
aa(lp54
F3.259999999999991
aF270.049
aa(lp55
F3.458000000000027
aF273.507
aa(lp56
F9.293000000000006
aF282.8
aa(lp57
F1.4379999999999882
aF284.238
aa(lp58
F3.0720000000000027
aF287.31
aa(lp59
F2.194999999999993
aF289.505
aa(lp60
F4.5849999999999795
aF294.09
aa(lp61
F5.084000000000003
aF299.174
aa(lp62
F1.3310000000000173
aF300.505
aa(lp63
F3.2490000000000236
aF303.754
aa(lp64
F2.276999999999987
aF306.031
aa(lp65
F4.3910000000000196
aF310.422
aa(lp66
F4.474999999999966
aF314.897
aa(lp67
F1.0989999999999895
aF315.996
aa(lp68
F3.0610000000000355
aF319.057
aa(lp69
F2.2239999999999895
aF321.281
aa(lp70
F4.5190000000000055
aF325.8
aa(lp71
F4.9879999999999995
aF330.788
aa(lp72
F0.0
aF330.788
aa(lp73
F0.0
aF330.788
aa(lp74
F8.159999999999968
aF338.948
aa(lp75
F0.0
aF338.948
aa(lp76
F1.1949999999999932
aF340.143
aa(lp77
F3.1750000000000114
aF343.318
aa(lp78
F3.923000000000002
aF347.241
aa(lp79
F6.117999999999995
aF353.359
aa(lp80
F7.53000000000003
aF360.889
aa(lp81
F1.766999999999996
aF362.656
aa(lp82
F1.3870000000000005
aF364.043
aa(lp83
F2.599999999999966
aF366.643
aa(lp84
F3.5990000000000464
aF370.242
aa(lp85
F0.0
aF370.242
aa(lp86
F9.798000000000002
aF380.04
aa(lp87
F0.0
aF380.04
aa(lp88
F0.0
aF380.04
aa(lp89
F3.8009999999999877
aF383.841
aa(lp90
F0.0
aF383.841
aa(lp91
F0.0
aF383.841
aa(lp92
F5.736999999999966
aF389.578
aa(lp93
F0.0
aF389.578
aa(lp94
F0.0
aF389.578
aa(lp95
F2.400000000000034
aF391.978
aa(lp96
F6.4879999999999995
aF398.466
aa(lp97
F0.0
aF398.466
aa(lp98
F5.440999999999974
aF403.907
aa(lp99
F0.0
aF403.907
aa(lp100
F3.0529999999999973
aF406.96
aa(lp101
F4.117999999999995
aF411.078
aa(lp102
F2.549000000000035
aF413.627
aa(lp103
F2.6059999999999945
aF416.233
aa(lp104
F2.855000000000018
aF419.088
aa(lp105
F3.2609999999999673
aF422.349
aa(lp106
F6.014999999999986
aF428.364
aa(lp107
F3.709000000000003
aF432.073
aa(lp108
F12.159000000000049
aF444.232
aa(lp109
F4.803999999999974
aF449.036
aa(lp110
F4.829999999999984
aF453.866
aa(lp111
F3.573000000000036
aF457.439
aa(lp112
F14.620999999999981
aF472.06
aa(lp113
F15.146000000000015
aF487.206
aa(lp114
F7.104999999999961
aF494.311
aa(lp115
F5.336000000000013
aF499.647
aa(lp116
F2.579999999999984
aF502.227
aa(lp117
F9.865000000000009
aF512.092
aa(lp118
F4.906000000000063
aF516.998
aa(lp119
F3.4289999999999736
aF520.427
aa(lp120
F2.592999999999961
aF523.02
aa(lp121
F5.234000000000037
aF528.254
aa(lp122
F1.9139999999999873
aF530.168
aa(lp123
F7.769999999999982
aF537.938
aa(lp124
F2.0779999999999745
aF540.016
aa(lp125
F2.900000000000091
aF542.916
aa(lp126
F4.233999999999924
aF547.15
aa(lp127
F5.9529999999999745
aF553.103
aa(lp128
F3.2420000000000755
aF556.345
aa.