(lp0
(lp1
S'clearAllInstructions'
p2
aF0.007
aI0
aa(lp3
(dp4
S'args'
p5
(dp6
S'color'
p7
S'rgba(0,0,255,.1)'
p8
ssS'func'
p9
S'changeBackgroundColor'
p10
saF0.0
aF0.007
aa(lp11
(dp12
g5
(dp13
S'divID'
p14
S'automatic'
p15
sg7
S'rgba(0,0,0,1)'
p16
sS'text'
p17
S'Welcome To'
p18
sS'top'
p19
I150
sS'fadeTime'
p20
I2
sS'fontSize'
p21
I300
sS'textAlign'
p22
S'center'
p23
sS'left'
p24
I0
ssg9
S'placeText'
p25
saF0.516
aF0.007
aa(lp26
(dp27
g5
(dp28
g14
S'automatic2'
p29
sg7
g16
sg17
S'The Vernon Smith'
p30
sg19
I625
sg20
I2
sg21
I300
sg22
g23
sg24
I0
ssg9
g25
saF0.689
aF0.523
aa(lp31
(dp32
g5
(dp33
g14
S'automatic3'
p34
sg7
g16
sg17
S'Experimental Economics Laboratory'
p35
sg19
I700
sg20
I2
sg21
I300
sg22
g23
sg24
I0
ssg9
g25
saF1.5490000000000002
aF1.212
aa(lp36
(dp37
g5
(dp38
S'functionName'
p39
S'drawLogoVSEEL'
p40
ssg9
S'runJavascriptFunction'
p41
saF9.611999999999998
aF2.761
aa(lp42
(dp43
g5
(dp44
g39
S'clearAllInstructions'
p45
ssg9
g41
saF0.0
aF12.373
aa(lp46
(dp47
g5
(dp48
g7
S'rgba(0,255,0,.1)'
p49
ssg9
g10
saF0.0
aF12.373
aa(lp50
(dp51
g5
(dp52
g14
S'instructionsSlideTitle'
p53
sg7
S'rgba(0,127,0,1)'
p54
sg17
S'Welcome'
p55
sg19
I50
sg20
I1
sg21
I400
sg22
g23
sg24
I0
ssg9
g25
saF4.281000000000001
aF12.373
aa(lp56
(dp57
g5
(dp58
g14
S'instructionsSlideEntry1'
p59
sg7
g16
sg17
S'Economics Experiment.'
p60
sg19
I200
sg20
I2
sg21
I300
sg22
g23
sg24
I0
ssg9
g25
saF5.3679999999999986
aF16.654
aa(lp61
(dp62
g5
(dp63
g14
S'instructionsSlideEntry2'
p64
sg7
g16
sg17
S'Will get paid in cash at the end of the experiment.'
p65
sg19
I350
sg20
I2
sg21
I300
sg22
g23
sg24
I0
ssg9
g25
saF8.521
aF22.022
aa(lp66
(dp67
g5
(dp68
g14
S'instructionsSlideEntry3'
p69
sg7
g16
sg17
S'Please remain silent.'
p70
sg19
I500
sg20
I2
sg21
I300
sg22
g23
sg24
I0
ssg9
g25
saF7.8359999999999985
aF30.543
aa(lp71
(dp72
g5
(dp73
g14
S'instructionsSlideEntry4'
p74
sg7
g16
sg17
S'Please raise your hand for help.'
p75
sg19
I650
sg20
I2
sg21
I300
sg22
g23
sg24
I0
ssg9
g25
saF4.131
aF38.379
aa(lp76
(dp77
g5
(dp78
g39
g45
ssg9
g41
saF0.0
aF42.51
aa(lp79
(dp80
g5
(dp81
g7
S'rgba(255,0,0,.1)'
p82
ssg9
g10
saF0.0
aF42.51
aa(lp83
(dp84
g5
(dp85
g14
g53
sg7
S'rgba(127,0,0,1)'
p86
sg17
g55
sg19
I50
sg20
I1
sg21
I400
sg22
g23
sg24
I0
ssg9
g25
saF1.5080000000000027
aF42.51
aa(lp87
(dp88
g5
(dp89
g14
S'instructionsSlideEntry1'
p90
sg7
g16
sg17
S'Do not talk, laugh or exclaim out loud.'
p91
sg19
I200
sg20
I2
sg21
I300
sg22
g23
sg24
I0
ssg9
g25
saF3.2819999999999965
aF44.018
aa(lp92
(dp93
g5
(dp94
g14
S'instructionsSlideEntry2'
p95
sg7
g16
sg17
S'Keep your eyes on your screen only.'
p96
sg19
I350
sg20
I2
sg21
I300
sg22
g23
sg24
I0
ssg9
g25
saF4.044000000000004
aF47.3
aa(lp97
(dp98
g5
(dp99
g14
S'instructionsSlideEntry3'
p100
sg7
g16
sg17
S'Turn off cell phones, etc. and put them away.'
p101
sg19
I500
sg20
I2
sg21
I300
sg22
g23
sg24
I0
ssg9
g25
saF12.043999999999997
aF51.344
aa(lp102
(dp103
g5
(dp104
g14
S'instructionsSlideEntry4'
p105
sg7
g16
sg17
S'We appreciate your cooperation.'
p106
sg19
I650
sg20
I2
sg21
I300
sg22
g23
sg24
I0
ssg9
g25
saF4.274999999999999
aF63.388
aa(lp107
(dp108
g5
(dp109
g39
g45
ssg9
g41
saF0.0
aF67.663
aa(lp110
(dp111
g5
(dp112
g7
S'rgba(0,0,255,.1)'
p113
ssg9
g10
saF0.0
aF67.663
aa(lp114
(dp115
g5
(dp116
g14
g53
sg7
S'rgba(0,0,127,1)'
p117
sg17
S'Agenda'
p118
sg19
I50
sg20
I1
sg21
I400
sg22
g23
sg24
I0
ssg9
g25
saF1.2460000000000093
aF67.663
aa(lp119
(dp120
g5
(dp121
g14
S'instructionsSlideEntry1'
p122
sg7
g16
sg17
S'1. Instructions'
p123
sg19
I150
sg20
I2
sg21
I300
sg22
g24
sg24
I200
ssg9
g25
saF5.459999999999994
aF68.909
aa(lp124
(dp125
g5
(dp126
g14
S'instructionsSlideEntry2'
p127
sg7
g16
sg17
S'2. Practice Match'
p128
sg19
I250
sg20
I2
sg21
I300
sg22
g24
sg24
I200
ssg9
g25
saF6.290000000000006
aF74.369
aa(lp129
(dp130
g5
(dp131
g14
S'instructionsSlideEntry3'
p132
sg7
g16
sg17
S'3. Quiz (10 questions, Earn up to $10)'
p133
sg19
I350
sg20
I2
sg21
I300
sg22
g24
sg24
I200
ssg9
g25
saF9.961999999999989
aF80.659
aa(lp134
(dp135
g5
(dp136
g14
S'instructionsSlideEntry4'
p137
sg7
g16
sg17
S'Answers to all questions in instructions.'
p138
sg19
I450
sg20
I2
sg21
I300
sg22
g24
sg24
I300
ssg9
g25
saF5.560000000000002
aF90.621
aa(lp139
(dp140
g5
(dp141
g14
S'instructionsSlideEntry5'
p142
sg7
g16
sg17
S'$10 if you answer all 10 questions correctly.'
p143
sg19
I550
sg20
I2
sg21
I300
sg22
g24
sg24
I300
ssg9
g25
saF5.576999999999998
aF96.181
aa(lp144
(dp145
g5
(dp146
g14
S'instructionsSlideEntry6'
p147
sg7
g16
sg17
S"$0 you don't answer all questions correctly."
p148
sg19
I650
sg20
I2
sg21
I300
sg22
g24
sg24
I300
ssg9
g25
saF9.055000000000007
aF101.758
aa(lp149
(dp150
g5
(dp151
g14
S'instructionsSlideEntry7'
p152
sg7
g16
sg17
S'10 minutes to answer all questions.'
p153
sg19
I750
sg20
I2
sg21
I300
sg22
g24
sg24
I300
ssg9
g25
saF3.807000000000002
aF110.813
aa(lp154
(dp155
g5
(dp156
g14
S'instructionsSlideEntry8'
p157
sg7
g16
sg17
S'4. Experiment'
p158
sg19
I850
sg20
I2
sg21
I300
sg22
g24
sg24
I200
ssg9
g25
saF7.329999999999998
aF114.62
aa(lp159
(dp160
g5
(dp161
g39
g45
ssg9
g41
saF0.0
aF121.95
aa(lp162
(dp163
g5
(dp164
g7
S'rgba(0,255,0,.1)'
p165
ssg9
g10
saF0.0
aF121.95
aa(lp166
(dp167
g5
(dp168
g14
g53
sg7
S'rgba(0,127,0,1)'
p169
sg17
S'Exchange Rate'
p170
sg19
I50
sg20
I1
sg21
I400
sg22
g23
sg24
I0
ssg9
g25
saF9.885000000000005
aF121.95
aa(lp171
(dp172
g5
(dp173
g14
S'instructionsSlideEntry1'
p174
sg7
g16
sg17
S'1250 Francs = $1.00'
p175
sg19
I450
sg20
I2
sg21
I900
sg22
g23
sg24
I0
ssg9
g25
saF11.625
aF131.835
aa(lp176
(dp177
g5
(dp178
g39
g45
ssg9
g41
saF0.0
aF143.46
aa(lp179
(dp180
g5
(dp181
g7
S'rgba(255,0,0,.1)'
p182
ssg9
g10
saF0.0
aF143.46
aa(lp183
(dp184
g5
(dp185
g14
g53
sg7
S'rgba(127,0,0,1)'
p186
sg17
S'Experiment Details'
p187
sg19
I50
sg20
I1
sg21
I400
sg22
g23
sg24
I0
ssg9
g25
saF2.0909999999999798
aF143.46
aa(lp188
(dp189
g5
(dp190
g14
S'instructionsSlideEntry1'
p191
sg7
g16
sg17
S'10 Matches.'
p192
sg19
I175
sg20
I2
sg21
I300
sg22
g23
sg24
I0
ssg9
g25
saF3.670000000000016
aF145.551
aa(lp193
(dp194
g5
(dp195
g14
S'instructionsSlideEntry2'
p196
sg7
g16
sg17
S'Participants split into two groups.'
p197
sg19
I275
sg20
I2
sg21
I300
sg22
g23
sg24
I0
ssg9
g25
saF12.460000000000008
aF149.221
aa(lp198
(dp199
g5
(dp200
g14
S'instructionsSlideEntry3'
p201
sg7
g16
sg17
S'Randomly paired with another participant from group at the start of each match.'
p202
sg19
I375
sg20
I2
sg21
I300
sg22
g23
sg24
I0
ssg9
g25
saF18.84699999999998
aF161.681
aa(lp203
(dp204
g5
(dp205
g14
S'instructionsSlideEntry4'
p206
sg7
g16
sg17
S'Each match has a different number of periods.'
p207
sg19
I475
sg20
I2
sg21
I300
sg22
g23
sg24
I0
ssg9
g25
saF3.724000000000018
aF180.528
aa(lp208
(dp209
g5
(dp210
g14
S'instructionsSlideEntry5'
p211
sg7
g16
sg17
S'You will remain anonymous.'
p212
sg19
I575
sg20
I2
sg21
I300
sg22
g23
sg24
I0
ssg9
g25
saF10.225999999999999
aF184.252
aa(lp213
(dp214
g5
(dp215
g14
S'instructionsSlideEntry6'
p216
sg7
g16
sg17
S'Choice only affect you and participant you are paired with.'
p217
sg19
I675
sg20
I2
sg21
I300
sg22
g23
sg24
I0
ssg9
g25
saF17.596000000000004
aF194.478
aa(lp218
(dp219
g5
(dp220
g39
g45
ssg9
g41
saF0.0
aF212.074
aa(lp221
(dp222
g5
(dp223
S'y'
p224
I300
ssg9
S'changeCaptionBottom'
p225
saF0.0
aF212.074
aa(lp226
(dp227
g5
(dp228
g39
S'drawInstructionDemoPreChoice'
p229
ssg9
g41
saF0.0
aF212.074
aa(lp230
(dp231
g5
(dp232
g39
S'drawCursorOverlay'
p233
ssg9
g41
saF0.0
aF212.074
aa(lp234
(dp235
g5
(dp236
g224
I600
sS'x'
p237
I800
ssg9
S'placeCursor'
p238
saF33.63799999999998
aF212.074
aa(lp239
(dp240
g5
(dp241
g39
S'toggleOverlay'
p242
ssg9
g41
saF0.0
aF245.712
aa(lp243
(dp244
g5
(dp245
g39
g242
ssg9
g41
saF6.7590000000000146
aF245.712
aa(lp246
(dp247
g5
(dp248
S'divName'
p249
S'gameDiv'
p250
ssg9
S'highlightDiv'
p251
saF6.5919999999999845
aF252.471
aa(lp252
(dp253
g5
(dp254
S'sequence'
p255
(lp256
(lp257
S'toDiv'
p258
a(dp259
g249
g250
saassS'runOnRefresh'
p260
I00
sg9
S'mouseSequence'
p261
saF7.725999999999999
aF259.063
aa(lp262
(dp263
g5
(dp264
g255
(lp265
(lp266
g258
a(dp267
g249
S'gameTableRowLabel_1'
p268
saassg260
I00
sg9
g261
saF3.259999999999991
aF266.789
aa(lp269
(dp270
g5
(dp271
g255
(lp272
(lp273
g258
a(dp274
g249
S'gameTableRowLabel_2'
p275
saassg260
I00
sg9
g261
saF3.458000000000027
aF270.049
aa(lp276
(dp277
g5
(dp278
g255
(lp279
(lp280
g258
a(dp281
g249
S'gameTableColLabel_1'
p282
saassg260
I00
sg9
g261
saF9.293000000000006
aF273.507
aa(lp283
(dp284
g5
(dp285
g255
(lp286
(lp287
g258
a(dp288
g249
S'gameTableColLabel_2'
p289
saassg260
I00
sg9
g261
saF1.4379999999999882
aF282.8
aa(lp290
(dp291
g5
(dp292
g255
(lp293
(lp294
g258
a(dp295
g249
g275
saassg260
I00
sg9
g261
saF3.0720000000000027
aF284.238
aa(lp296
(dp297
g5
(dp298
g255
(lp299
(lp300
g258
a(dp301
g249
g282
saassg260
I00
sg9
g261
saF2.194999999999993
aF287.31
aa(lp302
(dp303
g5
(dp304
g255
(lp305
(lp306
g258
a(dp307
g249
S'gameTableEntryPay1_2_1'
p308
saassg260
I00
sg9
g261
saF4.5849999999999795
aF289.505
aa(lp309
(dp310
g5
(dp311
g255
(lp312
(lp313
g258
a(dp314
g249
S'gameTableEntryPay2_2_1'
p315
saassg260
I00
sg9
g261
saF5.084000000000003
aF294.09
aa(lp316
(dp317
g5
(dp318
g249
g250
ssg9
S'unHighlightDiv'
p319
saF1.3310000000000173
aF299.174
aa(lp320
(dp321
g5
(dp322
g249
S'questionsDiv'
p323
ssg9
g251
saF3.2490000000000236
aF300.505
aa(lp324
(dp325
g5
(dp326
g255
(lp327
(lp328
g258
a(dp329
g249
S'periodSummaryLabel'
p330
saassg260
I00
sg9
g261
saF2.276999999999987
aF303.754
aa(lp331
(dp332
g5
(dp333
g255
(lp334
(lp335
g258
a(dp336
g249
S'summaryLabel'
p337
saassg260
I00
sg9
g261
saF4.3910000000000196
aF306.031
aa(lp338
(dp339
g5
(dp340
g249
g323
ssg9
g319
saF4.474999999999966
aF310.422
aa(lp341
(dp342
g5
(dp343
g249
S'historyDiv'
p344
ssg9
g251
saF1.0989999999999895
aF314.897
aa(lp345
(dp346
g5
(dp347
g249
S'historyLabels'
p348
ssg9
g251
saF3.0610000000000355
aF315.996
aa(lp349
(dp350
g5
(dp351
g255
(lp352
(lp353
g258
a(dp354
g249
g348
saassg260
I00
sg9
g261
saF2.2239999999999895
aF319.057
aa(lp355
(dp356
g5
(dp357
g249
g344
ssg9
g319
saF4.5190000000000055
aF321.281
aa(lp358
(dp359
g5
(dp360
g249
g348
ssg9
g319
saF4.9879999999999995
aF325.8
aa(lp361
(dp362
g5
(dp363
g249
S'statusBar'
p364
ssg9
g251
saF0.0
aF330.788
aa(lp365
(dp366
g5
(dp367
g255
(lp368
(lp369
g258
a(dp370
g249
g364
saassg260
I00
sg9
g261
saF0.0
aF330.788
aa(lp371
(dp372
g5
(dp373
g249
g364
ssg9
g319
saF8.159999999999968
aF330.788
aa(lp374
(dp375
g5
(dp376
g39
g242
ssg9
g41
saF0.0
aF338.948
aa(lp377
(dp378
g5
(dp379
g255
(lp380
(lp381
g258
a(dp382
g249
g268
saa(lp383
S'clickDiv'
p384
a(dp385
g5
(dp386
S'row'
p387
I1
ssg9
S'instructionsSelectRow'
p388
sg249
g268
saassg260
I00
sg9
g261
saF1.1949999999999932
aF338.948
aa(lp389
(dp390
g5
(dp391
g255
(lp392
(lp393
g258
a(dp394
g249
S'summaryMyChoiceEntry'
p395
saassg260
I00
sg9
g261
saF3.1750000000000114
aF340.143
aa(lp396
(dp397
g5
(dp398
g255
(lp399
(lp400
g258
a(dp401
g249
g289
saa(lp402
g384
a(dp403
g5
(dp404
S'col'
p405
I2
ssg9
S'instructionsSelectCol'
p406
sg249
g289
saassg260
I00
sg9
g261
saF3.923000000000002
aF343.318
aa(lp407
(dp408
g5
(dp409
g255
(lp410
(lp411
g258
a(dp412
g249
S'summaryOthersChoiceEntryGuess'
p413
saassg260
I00
sg9
g261
saF6.117999999999995
aF347.241
aa(lp414
(dp415
g5
(dp416
g255
(lp417
(lp418
g258
a(dp419
g249
g364
saassg260
I00
sg9
g261
saF7.53000000000003
aF353.359
aa(lp420
(dp421
g5
(dp422
sg9
S'instructionsFinishPeriod'
p423
saF1.766999999999996
aF360.889
aa(lp424
(dp425
g5
(dp426
g255
(lp427
(lp428
g258
a(dp429
S'anchor'
p430
S'south'
p431
sg249
S'selectedColumnDiv2'
p432
saassg260
I00
sg9
g261
saF1.3870000000000005
aF362.656
aa(lp433
(dp434
g5
(dp435
g255
(lp436
(lp437
g258
a(dp438
g249
S'gameTableEntry_1_1'
p439
saassg260
I00
sg9
g261
saF2.599999999999966
aF364.043
aa(lp440
(dp441
g5
(dp442
g255
(lp443
(lp444
g258
a(dp445
g249
S'summaryOthersChoiceEntryActual'
p446
saassg260
I00
sg9
g261
saF3.5990000000000464
aF366.643
aa(lp447
(dp448
g5
(dp449
g255
(lp450
(lp451
g258
a(dp452
g249
S'summaryPayoffs'
p453
saassg260
I00
sg9
g261
saF0.0
aF370.242
aa(lp454
(dp455
g5
(dp456
g255
(lp457
(lp458
g258
a(dp459
g249
S'historyEntry_20_0'
p460
saassg260
I00
sg9
g261
saF9.798000000000002
aF370.242
aa(lp461
(dp462
g5
(dp463
g255
(lp464
(lp465
g258
a(dp466
g249
g337
saassg260
I00
sg9
g261
saF0.0
aF380.04
aa(lp467
(dp468
g5
(dp469
g255
(lp470
(lp471
g258
a(dp472
g249
S'totalPayoffMineLabel'
p473
saassg260
I00
sg9
g261
saF0.0
aF380.04
aa(lp474
(dp475
g5
(dp476
g255
(lp477
(lp478
g258
a(dp479
g249
S'correctGuessesLabel'
p480
saassg260
I00
sg9
g261
saF3.8009999999999877
aF380.04
aa(lp481
(dp482
g5
(dp483
g255
(lp484
(lp485
g258
a(dp486
g249
g439
saassg260
I00
sg9
g261
saF0.0
aF383.841
aa(lp487
(dp488
g5
(dp489
g255
(lp490
(lp491
g384
a(dp492
g5
(dp493
sg9
S'instructionsMovetoNextPeriod'
p494
sg249
g439
saassg260
I00
sg9
g261
saF0.0
aF383.841
aa(lp495
(dp496
g5
(dp497
g39
g45
ssg9
g41
saF5.736999999999966
aF383.841
aa(lp498
(dp499
g5
(dp500
g7
S'rgba(0,255,0,.1)'
p501
ssg9
g10
saF0.0
aF389.578
aa(lp502
(dp503
g5
(dp504
g14
g53
sg7
S'rgba(0,127,0,1)'
p505
sg17
S'Number of Periods Per Match'
p506
sg19
I50
sg20
I1
sg21
I400
sg22
g23
sg24
I0
ssg9
g25
saF0.0
aF389.578
aa(lp507
(dp508
g5
(dp509
g14
S'instructionsSlideEntry1'
p510
sg7
g16
sg17
S'Each Period 1 Number drawn from set'
p511
sg19
I150
sg20
I2
sg21
I300
sg22
g23
sg24
I0
ssg9
g25
saF2.400000000000034
aF389.578
aa(lp512
(dp513
g5
(dp514
g14
S'instructionsSlideEntry2'
p515
sg7
g16
sg17
S'{1,2,3,...,98,99,100} (and replaced).'
p516
sg19
I250
sg20
I2
sg21
I300
sg22
g23
sg24
I0
ssg9
g25
saF6.4879999999999995
aF391.978
aa(lp517
(dp518
g5
(dp519
g14
S'instructionsSlideEntry3'
p520
sg7
g16
sg17
S'If Number is 1 - The match ends.'
p521
sg19
I350
sg20
I2
sg21
I300
sg22
g23
sg24
I0
ssg9
g25
saF0.0
aF398.466
aa(lp522
(dp523
g5
(dp524
g14
S'instructionsSlideEntry4'
p525
sg7
g16
sg17
S'If Number is not 1 - There match will continue.'
p526
sg19
I450
sg20
I2
sg21
I300
sg22
g23
sg24
I0
ssg9
g25
saF5.440999999999974
aF398.466
aa(lp527
(dp528
g5
(dp529
g14
S'instructionsSlideEntry5'
p530
sg7
g16
sg17
S'Expected number of periods is 100 (but may be different).'
p531
sg19
I550
sg20
I2
sg21
I300
sg22
g23
sg24
I0
ssg9
g25
saF0.0
aF403.907
aa(lp532
(dp533
g5
(dp534
g14
S'instructionsSlideEntry6'
p535
sg7
g16
sg17
S'This procedure has been performed on the computer,'
p536
sg19
I650
sg20
I2
sg21
I300
sg22
g23
sg24
I0
ssg9
g25
saF3.0529999999999973
aF403.907
aa(lp537
(dp538
g5
(dp539
g14
S'instructionsSlideEntry7'
p540
sg7
g16
sg17
S'before the experiment.'
p541
sg19
I750
sg20
I2
sg21
I300
sg22
g23
sg24
I0
ssg9
g25
saF4.117999999999995
aF406.96
aa(lp542
(dp543
g5
(dp544
g39
g45
ssg9
g41
saF2.549000000000035
aF411.078
aa(lp545
(dp546
g5
(dp547
g7
S'rgba(255,0,0,.1)'
p548
ssg9
g10
saF2.6059999999999945
aF413.627
aa(lp549
(dp550
g5
(dp551
g14
g53
sg7
S'rgba(127,0,0,1)'
p552
sg17
S'Payoffs'
p553
sg19
I50
sg20
I1
sg21
I400
sg22
g23
sg24
I0
ssg9
g25
saF2.855000000000018
aF416.233
aa(lp554
(dp555
g5
(dp556
g14
S'instructionsSlideEntry1'
p557
sg7
g16
sg17
S'Your payment will contain the following:'
p558
sg19
I150
sg20
I2
sg21
I300
sg22
g24
sg24
I200
ssg9
g25
saF3.2609999999999673
aF419.088
aa(lp559
(dp560
g5
(dp561
g14
S'instructionsSlideEntry2'
p562
sg7
g16
sg17
S'1. $5 Show up fee.'
p563
sg19
I250
sg20
I2
sg21
I300
sg22
g24
sg24
I250
ssg9
g25
saF6.014999999999986
aF422.349
aa(lp564
(dp565
g5
(dp566
g14
S'instructionsSlideEntry3'
p567
sg7
g16
sg17
S'2. Payment from randomly selected block of 30 periods.'
p568
sg19
I350
sg20
I2
sg21
I300
sg22
g24
sg24
I250
ssg9
g25
saF3.709000000000003
aF428.364
aa(lp569
(dp570
g5
(dp571
g14
S'instructionsSlideEntry4'
p572
sg7
g16
sg17
S'3. Bonus payment for raffle tickets.'
p573
sg19
I450
sg20
I2
sg21
I300
sg22
g24
sg24
I250
ssg9
g25
saF12.159000000000049
aF432.073
aa(lp574
(dp575
g5
(dp576
g14
S'instructionsSlideEntry5'
p577
sg7
g16
sg17
S'4. Payment for Three Additional Tasks.'
p578
sg19
I550
sg20
I2
sg21
I300
sg22
g24
sg24
I250
ssg9
g25
saF4.803999999999974
aF444.232
aa(lp579
(dp580
g5
(dp581
g14
S'instructionsSlideEntry6'
p582
sg7
g16
sg17
S'Francs converted to dollars at the end.'
p583
sg19
I650
sg20
I2
sg21
I300
sg22
g24
sg24
I200
ssg9
g25
saF4.829999999999984
aF449.036
aa(lp584
(dp585
g5
(dp586
g14
S'instructionsSlideEntry7'
p587
sg7
g16
sg17
S'Paid in cash, in private.'
p588
sg19
I750
sg20
I2
sg21
I300
sg22
g24
sg24
I200
ssg9
g25
saF3.573000000000036
aF453.866
aa(lp589
(dp590
g5
(dp591
g39
g45
ssg9
g41
saF14.620999999999981
aF457.439
aa(lp592
(dp593
g5
(dp594
g7
S'rgba(0,0,255,.1)'
p595
ssg9
g10
saF15.146000000000015
aF472.06
aa(lp596
(dp597
g5
(dp598
g14
g53
sg7
S'rgba(0,0,127,1)'
p599
sg17
S'Random Block of 30 Periods'
p600
sg19
I50
sg20
I1
sg21
I400
sg22
g23
sg24
I0
ssg9
g25
saF7.104999999999961
aF487.206
aa(lp601
(dp602
g5
(dp603
g14
S'instructionsSlideEntry1'
p604
sg7
g16
sg17
S'Randomly select 1 period.'
p605
sg19
I175
sg20
I2
sg21
I300
sg22
g23
sg24
I0
ssg9
g25
saF5.336000000000013
aF494.311
aa(lp606
(dp607
g5
(dp608
g14
S'instructionsSlideEntry2'
p609
sg7
g16
sg17
S'Block contains that period, and following 29.'
p610
sg19
I275
sg20
I2
sg21
I300
sg22
g23
sg24
I0
ssg9
g25
saF2.579999999999984
aF499.647
aa(lp611
(dp612
g5
(dp613
g14
S'instructionsSlideEntry3'
p614
sg7
g16
sg17
S'Block can span multiple matches.'
p615
sg19
I375
sg20
I2
sg21
I300
sg22
g23
sg24
I0
ssg9
g25
saF9.865000000000009
aF502.227
aa(lp616
(dp617
g5
(dp618
g14
S'instructionsSlideEntry4'
p619
sg7
g16
sg17
S'If period is at end, then block loops to 1st period.'
p620
sg19
I475
sg20
I2
sg21
I300
sg22
g23
sg24
I0
ssg9
g25
saF4.906000000000063
aF512.092
aa(lp621
(dp622
g5
(dp623
g14
S'instructionsSlideEntry5'
p624
sg7
g16
sg17
S'Each period equally likely to be paid.'
p625
sg19
I575
sg20
I2
sg21
I300
sg22
g23
sg24
I0
ssg9
g25
saF3.4289999999999736
aF516.998
aa(lp626
(dp627
g5
(dp628
g14
S'instructionsSlideEntry6'
p629
sg7
g16
sg17
S'Random period pre-selected, written on board.'
p630
sg19
I675
sg20
I2
sg21
I300
sg22
g23
sg24
I0
ssg9
g25
saF2.592999999999961
aF520.427
aa(lp631
(dp632
g5
(dp633
g39
g45
ssg9
g41
saF5.234000000000037
aF523.02
aa(lp634
(dp635
g5
(dp636
g7
S'rgba(255,0,0,.1)'
p637
ssg9
g10
saF1.9139999999999873
aF528.254
aa(lp638
(dp639
g5
(dp640
g14
g53
sg7
S'rgba(127,0,0,1)'
p641
sg17
S'Random Block of 30 Periods: Examples'
p642
sg19
I50
sg20
I1
sg21
I400
sg22
g23
sg24
I0
ssg9
g25
saF7.769999999999982
aF530.168
aa(lp643
(dp644
g5
(dp645
g14
S'instructionsSlideEntry1'
p646
sg7
g16
sg17
S'Randomly selected period: Match #4 Period #14,'
p647
sg19
I200
sg20
I2
sg21
I300
sg22
g24
sg24
I200
ssg9
g25
saF2.0779999999999745
aF537.938
aa(lp648
(dp649
g5
(dp650
g14
S'instructionsSlideEntry2'
p651
sg7
g16
sg17
S'Block: Match #4 P14-P43.'
p652
sg19
I300
sg20
I2
sg21
I300
sg22
g24
sg24
I200
ssg9
g25
saF2.900000000000091
aF540.016
aa(lp653
(dp654
g5
(dp655
g14
S'instructionsSlideEntry3'
p656
sg7
g16
sg17
S'Randomly selected period: Match #2 Period #91,'
p657
sg19
I450
sg20
I2
sg21
I300
sg22
g24
sg24
I200
ssg9
g25
saF4.233999999999924
aF542.916
aa(lp658
(dp659
g5
(dp660
g14
S'instructionsSlideEntry4'
p661
sg7
g16
sg17
S'Block: Match #2 P91-P100 and Match #3 P1-P20.'
p662
sg19
I550
sg20
I2
sg21
I300
sg22
g24
sg24
I200
ssg9
g25
saF5.9529999999999745
aF547.15
aa(lp663
(dp664
g5
(dp665
g14
S'instructionsSlideEntry5'
p666
sg7
g16
sg17
S'Randomly selected period: Match #5 Period #81,'
p667
sg19
I700
sg20
I2
sg21
I300
sg22
g24
sg24
I200
ssg9
g25
saF3.2420000000000755
aF553.103
aa(lp668
(dp669
g5
(dp670
g14
S'instructionsSlideEntry6'
p671
sg7
g16
sg17
S'Block: Match #5 P81-P85 and Match #1 P1-P25.'
p672
sg19
I800
sg20
I2
sg21
I300
sg22
g24
sg24
I200
ssg9
g25
saI-1
aF556.345
aa.